
cimgui.cpp.o:
0000000000000000 r .LC0
0000000000000030 r .LC1
0000000000000000 r .LC10
0000000000000210 r .LC11
0000000000000248 r .LC13
0000000000000009 r .LC14
0000000000000270 r .LC15
0000000000000008 r .LC16
00000000000002a0 r .LC18
000000000000001a r .LC19
0000000000000070 r .LC2
00000000000002e8 r .LC20
000000000000002d r .LC21
0000000000000320 r .LC22
0000000000000368 r .LC23
0000000000000388 r .LC24
0000000000000010 r .LC25
0000000000000030 r .LC26
0000000000000000 r .LC27
0000000000000010 r .LC28
0000000000000004 r .LC29
00000000000000a8 r .LC3
0000000000000018 r .LC31
0000000000000020 r .LC32
0000000000000010 r .LC34
0000000000000008 r .LC35
000000000000000c r .LC36
00000000000003c8 r .LC37
00000000000003f0 r .LC38
0000000000000037 r .LC39
0000000000000000 r .LC4
000000000000004f r .LC40
0000000000000438 r .LC41
0000000000000458 r .LC42
0000000000000488 r .LC43
0000000000000028 r .LC44
0000000000000030 r .LC48
0000000000000020 r .LC49
00000000000000e0 r .LC5
000000000000006d r .LC56
00000000000004b8 r .LC57
00000000000004f0 r .LC58
0000000000000520 r .LC59
000000000000007c r .LC60
000000000000008c r .LC61
0000000000000568 r .LC62
00000000000005b0 r .LC63
00000000000005f8 r .LC64
0000000000000640 r .LC65
0000000000000660 r .LC66
0000000000000698 r .LC67
0000000000000020 r .LC68
0000000000000010 r .LC69
0000000000000000 r .LC7
0000000000000000 r .LC70
0000000000000038 r .LC71
0000000000000118 r .LC8
0000000000000140 r .LC9
0000000000000000 V DW.ref.__gxx_personality_v0
                 U GImGui
0000000000006c60 T ImBitVector_Clear
0000000000006d30 T ImBitVector_ClearBit
0000000000006bb0 T ImBitVector_Create
0000000000006ce0 T ImBitVector_SetBit
0000000000006c90 T ImBitVector_TestBit
00000000000037a0 T ImColor_HSV
0000000000003660 T ImColor_ImColor_Float
00000000000036c0 T ImColor_ImColor_Int
0000000000003620 T ImColor_ImColor_Nil
0000000000003710 T ImColor_ImColor_U32
0000000000003690 T ImColor_ImColor_Vec4
0000000000003770 T ImColor_SetHSV
0000000000003640 T ImColor_destroy
0000000000003990 T ImDrawCmd_GetTexID
0000000000003930 T ImDrawCmd_ImDrawCmd
0000000000003970 T ImDrawCmd_destroy
0000000000006ee0 T ImDrawDataBuilder_ImDrawDataBuilder
0000000000006f10 T ImDrawDataBuilder_destroy
0000000000004870 T ImDrawData_AddDrawList
0000000000004860 T ImDrawData_Clear
0000000000004880 T ImDrawData_DeIndexAllBuffers
00000000000047d0 T ImDrawData_ImDrawData
0000000000000000 t ImDrawData_ImDrawData.cold
0000000000004890 T ImDrawData_ScaleClipRects
0000000000004830 T ImDrawData_destroy
0000000000006e80 T ImDrawListSharedData_ImDrawListSharedData
0000000000006ed0 T ImDrawListSharedData_SetCircleTessellationMaxError
0000000000006ea0 T ImDrawListSharedData_destroy
0000000000003a50 T ImDrawListSplitter_Clear
0000000000003a60 T ImDrawListSplitter_ClearFreeMemory
00000000000039e0 T ImDrawListSplitter_ImDrawListSplitter
0000000000003a80 T ImDrawListSplitter_Merge
0000000000003a90 T ImDrawListSplitter_SetCurrentChannel
0000000000003a70 T ImDrawListSplitter_Split
0000000000003a10 T ImDrawListSplitter_destroy
0000000000003f80 T ImDrawList_AddBezierCubic
0000000000003fd0 T ImDrawList_AddBezierQuadratic
00000000000044b0 T ImDrawList_AddCallback
0000000000003df0 T ImDrawList_AddCircle
0000000000003e20 T ImDrawList_AddCircleFilled
0000000000004030 T ImDrawList_AddConcavePolyFilled
0000000000004020 T ImDrawList_AddConvexPolyFilled
00000000000044c0 T ImDrawList_AddDrawCmd
0000000000003eb0 T ImDrawList_AddEllipse
0000000000003ee0 T ImDrawList_AddEllipseFilled
0000000000004040 T ImDrawList_AddImage
0000000000004090 T ImDrawList_AddImageQuad
0000000000004110 T ImDrawList_AddImageRounded
0000000000003c10 T ImDrawList_AddLine
0000000000003e50 T ImDrawList_AddNgon
0000000000003e80 T ImDrawList_AddNgonFilled
0000000000004010 T ImDrawList_AddPolyline
0000000000003ce0 T ImDrawList_AddQuad
0000000000003d30 T ImDrawList_AddQuadFilled
0000000000003c40 T ImDrawList_AddRect
0000000000003c70 T ImDrawList_AddRectFilled
0000000000003ca0 T ImDrawList_AddRectFilledMultiColor
0000000000003f40 T ImDrawList_AddText_FontPtr
0000000000003f10 T ImDrawList_AddText_Vec2
0000000000003d70 T ImDrawList_AddTriangle
0000000000003db0 T ImDrawList_AddTriangleFilled
0000000000004500 T ImDrawList_ChannelsMerge
0000000000004520 T ImDrawList_ChannelsSetCurrent
00000000000044e0 T ImDrawList_ChannelsSplit
00000000000044d0 T ImDrawList_CloneOutput
0000000000003bc0 T ImDrawList_GetClipRectMax
0000000000003b70 T ImDrawList_GetClipRectMin
0000000000003aa0 T ImDrawList_ImDrawList
0000000000004380 T ImDrawList_PathArcTo
00000000000043b0 T ImDrawList_PathArcToFast
0000000000004410 T ImDrawList_PathBezierCubicCurveTo
0000000000004450 T ImDrawList_PathBezierQuadraticCurveTo
0000000000004160 T ImDrawList_PathClear
00000000000043e0 T ImDrawList_PathEllipticalArcTo
0000000000004330 T ImDrawList_PathFillConcave
0000000000004310 T ImDrawList_PathFillConvex
0000000000004170 T ImDrawList_PathLineTo
0000000000004230 T ImDrawList_PathLineToMergeDuplicate
0000000000004480 T ImDrawList_PathRect
0000000000004350 T ImDrawList_PathStroke
0000000000003b40 T ImDrawList_PopClipRect
0000000000003b60 T ImDrawList_PopTexture
00000000000045d0 T ImDrawList_PrimQuadUV
0000000000004560 T ImDrawList_PrimRect
0000000000004590 T ImDrawList_PrimRectUV
0000000000004540 T ImDrawList_PrimReserve
0000000000004550 T ImDrawList_PrimUnreserve
0000000000004690 T ImDrawList_PrimVtx
0000000000004670 T ImDrawList_PrimWriteIdx
0000000000004640 T ImDrawList_PrimWriteVtx
0000000000003b00 T ImDrawList_PushClipRect
0000000000003b30 T ImDrawList_PushClipRectFullScreen
0000000000003b50 T ImDrawList_PushTexture
0000000000004760 T ImDrawList__CalcCircleAutoSegmentCount
00000000000046f0 T ImDrawList__ClearFreeMemory
0000000000004720 T ImDrawList__OnChangedClipRect
0000000000004730 T ImDrawList__OnChangedTexture
0000000000004740 T ImDrawList__OnChangedVtxOffset
0000000000004770 T ImDrawList__PathArcToFastEx
00000000000047a0 T ImDrawList__PathArcToN
0000000000004700 T ImDrawList__PopUnusedDrawCmd
00000000000046e0 T ImDrawList__ResetForNewFrame
00000000000046d0 T ImDrawList__SetDrawListSharedData
0000000000004750 T ImDrawList__SetTexture
0000000000004710 T ImDrawList__TryMergeDrawCmds
0000000000003ad0 T ImDrawList_destroy
000000000000b760 T ImFontAtlasBuilder_ImFontAtlasBuilder
000000000000b7d0 T ImFontAtlasBuilder_destroy
0000000000004d90 T ImFontAtlasRect_ImFontAtlasRect
0000000000004dc0 T ImFontAtlasRect_destroy
0000000000004f10 T ImFontAtlas_AddCustomRect
0000000000004e30 T ImFontAtlas_AddFont
0000000000004e40 T ImFontAtlas_AddFontDefault
0000000000004e50 T ImFontAtlas_AddFontFromFileTTF
0000000000004e80 T ImFontAtlas_AddFontFromMemoryCompressedBase85TTF
0000000000004e70 T ImFontAtlas_AddFontFromMemoryCompressedTTF
0000000000004e60 T ImFontAtlas_AddFontFromMemoryTTF
0000000000004ea0 T ImFontAtlas_Clear
0000000000004ee0 T ImFontAtlas_ClearFonts
0000000000004ed0 T ImFontAtlas_ClearInputData
0000000000004ef0 T ImFontAtlas_ClearTexData
0000000000004eb0 T ImFontAtlas_CompactCache
0000000000004f30 T ImFontAtlas_GetCustomRect
0000000000004f00 T ImFontAtlas_GetGlyphRangesDefault
0000000000004de0 T ImFontAtlas_ImFontAtlas
0000000000004f20 T ImFontAtlas_RemoveCustomRect
0000000000004e90 T ImFontAtlas_RemoveFont
0000000000004ec0 T ImFontAtlas_SetFontLoader
0000000000004e00 T ImFontAtlas_destroy
0000000000004fb0 T ImFontBaked_ClearOutputData
0000000000004fc0 T ImFontBaked_FindGlyph
0000000000004fd0 T ImFontBaked_FindGlyphNoFallback
0000000000004fe0 T ImFontBaked_GetCharAdvance
0000000000004f40 T ImFontBaked_ImFontBaked
0000000000004ff0 T ImFontBaked_IsGlyphLoaded
0000000000004f60 T ImFontBaked_destroy
0000000000004a50 T ImFontConfig_ImFontConfig
0000000000004a70 T ImFontConfig_destroy
0000000000004d20 T ImFontGlyphRangesBuilder_AddChar
0000000000004d70 T ImFontGlyphRangesBuilder_AddRanges
0000000000004d60 T ImFontGlyphRangesBuilder_AddText
0000000000004d80 T ImFontGlyphRangesBuilder_BuildRanges
0000000000004bc0 T ImFontGlyphRangesBuilder_Clear
0000000000004c80 T ImFontGlyphRangesBuilder_GetBit
0000000000004ae0 T ImFontGlyphRangesBuilder_ImFontGlyphRangesBuilder
0000000000000016 t ImFontGlyphRangesBuilder_ImFontGlyphRangesBuilder.cold
0000000000004cd0 T ImFontGlyphRangesBuilder_SetBit
0000000000004b90 T ImFontGlyphRangesBuilder_destroy
0000000000004a90 T ImFontGlyph_ImFontGlyph
0000000000004ac0 T ImFontGlyph_destroy
000000000000b6a0 T ImFontLoader_ImFontLoader
000000000000b6d0 T ImFontLoader_destroy
0000000000005170 T ImFont_AddRemapChar
00000000000050c0 T ImFont_CalcTextSizeA
00000000000050e0 T ImFont_CalcWordWrapPosition
0000000000005160 T ImFont_ClearOutputData
0000000000005070 T ImFont_GetDebugName
00000000000050b0 T ImFont_GetFontBaked
0000000000005000 T ImFont_ImFont
0000000000005050 T ImFont_IsGlyphInFont
0000000000005180 T ImFont_IsGlyphRangeUnused
0000000000005060 T ImFont_IsLoaded
00000000000050f0 T ImFont_RenderChar
0000000000005120 T ImFont_RenderText
0000000000005020 T ImFont_destroy
0000000000007b20 T ImGuiBoxSelectState_ImGuiBoxSelectState
0000000000007b70 T ImGuiBoxSelectState_destroy
0000000000007000 T ImGuiComboPreviewData_ImGuiComboPreviewData
0000000000007030 T ImGuiComboPreviewData_destroy
0000000000008560 T ImGuiContextHook_ImGuiContextHook
0000000000008590 T ImGuiContextHook_destroy
00000000000085b0 T ImGuiContext_ImGuiContext
000000000000be90 T ImGuiContext_destroy
0000000000008420 T ImGuiDebugAllocInfo_ImGuiDebugAllocInfo
0000000000008450 T ImGuiDebugAllocInfo_destroy
0000000000007ef0 T ImGuiDockContext_ImGuiDockContext
0000000000007f20 T ImGuiDockContext_destroy
0000000000007d70 T ImGuiDockNode_ImGuiDockNode
0000000000007e10 T ImGuiDockNode_IsCentralNode
0000000000007de0 T ImGuiDockNode_IsDockSpace
0000000000007e60 T ImGuiDockNode_IsEmpty
0000000000007df0 T ImGuiDockNode_IsFloatingNode
0000000000007e20 T ImGuiDockNode_IsHiddenTabBar
0000000000007e50 T ImGuiDockNode_IsLeafNode
0000000000007e30 T ImGuiDockNode_IsNoTabBar
0000000000007dd0 T ImGuiDockNode_IsRootNode
0000000000007e40 T ImGuiDockNode_IsSplitNode
0000000000007e80 T ImGuiDockNode_Rect
0000000000007eb0 T ImGuiDockNode_SetLocalFlags
0000000000007ed0 T ImGuiDockNode_UpdateMergedFlags
0000000000007da0 T ImGuiDockNode_destroy
0000000000007460 T ImGuiErrorRecoveryState_ImGuiErrorRecoveryState
0000000000007490 T ImGuiErrorRecoveryState_destroy
00000000000084c0 T ImGuiIDStackTool_ImGuiIDStackTool
0000000000008510 T ImGuiIDStackTool_destroy
0000000000002c50 T ImGuiIO_AddFocusEvent
0000000000002c60 T ImGuiIO_AddInputCharacter
0000000000002c70 T ImGuiIO_AddInputCharacterUTF16
0000000000002c80 T ImGuiIO_AddInputCharactersUTF8
0000000000002bf0 T ImGuiIO_AddKeyAnalogEvent
0000000000002be0 T ImGuiIO_AddKeyEvent
0000000000002c10 T ImGuiIO_AddMouseButtonEvent
0000000000002c00 T ImGuiIO_AddMousePosEvent
0000000000002c30 T ImGuiIO_AddMouseSourceEvent
0000000000002c40 T ImGuiIO_AddMouseViewportEvent
0000000000002c20 T ImGuiIO_AddMouseWheelEvent
0000000000002cb0 T ImGuiIO_ClearEventsQueue
0000000000002cc0 T ImGuiIO_ClearInputKeys
0000000000002cd0 T ImGuiIO_ClearInputMouse
0000000000002ce0 T ImGuiIO_ImGuiIO
0000000000002ca0 T ImGuiIO_SetAppAcceptingEvents
0000000000002c90 T ImGuiIO_SetKeyEventNativeData
0000000000002d00 T ImGuiIO_destroy
0000000000007570 T ImGuiInputEvent_ImGuiInputEvent
00000000000075a0 T ImGuiInputEvent_destroy
0000000000002dc0 T ImGuiInputTextCallbackData_ClearSelection
0000000000002d80 T ImGuiInputTextCallbackData_DeleteChars
0000000000002de0 T ImGuiInputTextCallbackData_HasSelection
0000000000002d40 T ImGuiInputTextCallbackData_ImGuiInputTextCallbackData
0000000000002d90 T ImGuiInputTextCallbackData_InsertChars
0000000000002da0 T ImGuiInputTextCallbackData_SelectAll
0000000000002d60 T ImGuiInputTextCallbackData_destroy
0000000000007130 T ImGuiInputTextDeactivatedState_ClearFreeMemory
00000000000070d0 T ImGuiInputTextDeactivatedState_ImGuiInputTextDeactivatedState
0000000000007100 T ImGuiInputTextDeactivatedState_destroy
00000000000071f0 T ImGuiInputTextState_ClearFreeMemory
00000000000072a0 T ImGuiInputTextState_ClearSelection
00000000000071b0 T ImGuiInputTextState_ClearText
0000000000007270 T ImGuiInputTextState_CursorAnimReset
0000000000007280 T ImGuiInputTextState_CursorClamp
00000000000072b0 T ImGuiInputTextState_GetCursorPos
0000000000007260 T ImGuiInputTextState_GetPreferredOffsetX
00000000000072d0 T ImGuiInputTextState_GetSelectionEnd
00000000000072c0 T ImGuiInputTextState_GetSelectionStart
0000000000007290 T ImGuiInputTextState_HasSelection
0000000000007160 T ImGuiInputTextState_ImGuiInputTextState
0000000000007250 T ImGuiInputTextState_OnCharPressed
0000000000007240 T ImGuiInputTextState_OnKeyPressed
0000000000007300 T ImGuiInputTextState_ReloadUserBufAndKeepSelection
0000000000007310 T ImGuiInputTextState_ReloadUserBufAndMoveToEnd
00000000000072f0 T ImGuiInputTextState_ReloadUserBufAndSelectAll
00000000000072e0 T ImGuiInputTextState_SelectAll
0000000000007180 T ImGuiInputTextState_destroy
0000000000007770 T ImGuiKeyOwnerData_ImGuiKeyOwnerData
00000000000077a0 T ImGuiKeyOwnerData_destroy
00000000000075c0 T ImGuiKeyRoutingData_ImGuiKeyRoutingData
00000000000075f0 T ImGuiKeyRoutingData_destroy
00000000000076e0 T ImGuiKeyRoutingTable_Clear
0000000000007610 T ImGuiKeyRoutingTable_ImGuiKeyRoutingTable
0000000000007690 T ImGuiKeyRoutingTable_destroy
0000000000007410 T ImGuiLastItemData_ImGuiLastItemData
0000000000007440 T ImGuiLastItemData_destroy
0000000000007820 T ImGuiListClipperData_ImGuiListClipperData
0000000000007880 T ImGuiListClipperData_Reset
0000000000007850 T ImGuiListClipperData_destroy
00000000000077c0 T ImGuiListClipperRange_FromIndices
00000000000077f0 T ImGuiListClipperRange_FromPositions
00000000000035c0 T ImGuiListClipper_Begin
00000000000035d0 T ImGuiListClipper_End
0000000000003570 T ImGuiListClipper_ImGuiListClipper
00000000000035f0 T ImGuiListClipper_IncludeItemByIndex
0000000000003600 T ImGuiListClipper_IncludeItemsByIndex
0000000000003610 T ImGuiListClipper_SeekCursorForItem
00000000000035e0 T ImGuiListClipper_Step
0000000000003590 T ImGuiListClipper_destroy
00000000000070c0 T ImGuiMenuColumns_CalcNextTotalWidth
00000000000070b0 T ImGuiMenuColumns_DeclColumns
0000000000007050 T ImGuiMenuColumns_ImGuiMenuColumns
00000000000070a0 T ImGuiMenuColumns_Update
0000000000007080 T ImGuiMenuColumns_destroy
0000000000007d10 T ImGuiMultiSelectState_ImGuiMultiSelectState
0000000000007d50 T ImGuiMultiSelectState_destroy
0000000000007c10 T ImGuiMultiSelectTempData_Clear
0000000000007ca0 T ImGuiMultiSelectTempData_ClearIO
0000000000007b90 T ImGuiMultiSelectTempData_ImGuiMultiSelectTempData
0000000000007be0 T ImGuiMultiSelectTempData_destroy
0000000000007970 T ImGuiNavItemData_Clear
00000000000078f0 T ImGuiNavItemData_ImGuiNavItemData
0000000000007950 T ImGuiNavItemData_destroy
0000000000007400 T ImGuiNextItemData_ClearFlags
00000000000073a0 T ImGuiNextItemData_ImGuiNextItemData
00000000000073e0 T ImGuiNextItemData_destroy
0000000000007390 T ImGuiNextWindowData_ClearFlags
0000000000007320 T ImGuiNextWindowData_ImGuiNextWindowData
0000000000007370 T ImGuiNextWindowData_destroy
0000000000007a30 T ImGuiOldColumnData_ImGuiOldColumnData
0000000000007a60 T ImGuiOldColumnData_destroy
0000000000007a80 T ImGuiOldColumns_ImGuiOldColumns
0000000000007ad0 T ImGuiOldColumns_destroy
0000000000002f50 T ImGuiOnceUponAFrame_ImGuiOnceUponAFrame
0000000000002f70 T ImGuiOnceUponAFrame_destroy
0000000000002eb0 T ImGuiPayload_Clear
0000000000002e40 T ImGuiPayload_ImGuiPayload
0000000000002ef0 T ImGuiPayload_IsDataType
0000000000002f40 T ImGuiPayload_IsDelivery
0000000000002f30 T ImGuiPayload_IsPreview
0000000000002e90 T ImGuiPayload_destroy
00000000000052f0 T ImGuiPlatformIO_ClearPlatformHandlers
0000000000005300 T ImGuiPlatformIO_ClearRendererHandlers
0000000000005270 T ImGuiPlatformIO_ImGuiPlatformIO
000000000000bdd0 T ImGuiPlatformIO_Set_Platform_GetWindowPos
000000000000be30 T ImGuiPlatformIO_Set_Platform_GetWindowSize
0000000000005290 T ImGuiPlatformIO_destroy
0000000000005370 T ImGuiPlatformImeData_ImGuiPlatformImeData
00000000000053a0 T ImGuiPlatformImeData_destroy
0000000000005310 T ImGuiPlatformMonitor_ImGuiPlatformMonitor
0000000000005350 T ImGuiPlatformMonitor_destroy
0000000000007510 T ImGuiPopupData_ImGuiPopupData
0000000000007550 T ImGuiPopupData_destroy
00000000000074f0 T ImGuiPtrOrIndex_ImGuiPtrOrIndex_Int
00000000000074b0 T ImGuiPtrOrIndex_ImGuiPtrOrIndex_Ptr
00000000000074d0 T ImGuiPtrOrIndex_destroy
0000000000003870 T ImGuiSelectionBasicStorage_ApplyRequests
0000000000003890 T ImGuiSelectionBasicStorage_Clear
0000000000003880 T ImGuiSelectionBasicStorage_Contains
00000000000038c0 T ImGuiSelectionBasicStorage_GetNextSelectedItem
00000000000038d0 T ImGuiSelectionBasicStorage_GetStorageIdFromIndex
0000000000003820 T ImGuiSelectionBasicStorage_ImGuiSelectionBasicStorage
00000000000038b0 T ImGuiSelectionBasicStorage_SetItemSelected
00000000000038a0 T ImGuiSelectionBasicStorage_Swap
0000000000003840 T ImGuiSelectionBasicStorage_destroy
0000000000003920 T ImGuiSelectionExternalStorage_ApplyRequests
00000000000038e0 T ImGuiSelectionExternalStorage_ImGuiSelectionExternalStorage
0000000000003900 T ImGuiSelectionExternalStorage_destroy
00000000000083c0 T ImGuiSettingsHandler_ImGuiSettingsHandler
0000000000008400 T ImGuiSettingsHandler_destroy
0000000000008470 T ImGuiStackLevelInfo_ImGuiStackLevelInfo
00000000000084a0 T ImGuiStackLevelInfo_destroy
0000000000003400 T ImGuiStoragePair_ImGuiStoragePair_Float
00000000000033b0 T ImGuiStoragePair_ImGuiStoragePair_Int
0000000000003430 T ImGuiStoragePair_ImGuiStoragePair_Ptr
00000000000033e0 T ImGuiStoragePair_destroy
0000000000003550 T ImGuiStorage_BuildSortByKey
0000000000003460 T ImGuiStorage_Clear
00000000000034b0 T ImGuiStorage_GetBool
0000000000003520 T ImGuiStorage_GetBoolRef
00000000000034d0 T ImGuiStorage_GetFloat
0000000000003530 T ImGuiStorage_GetFloatRef
0000000000003490 T ImGuiStorage_GetInt
0000000000003510 T ImGuiStorage_GetIntRef
00000000000034f0 T ImGuiStorage_GetVoidPtr
0000000000003540 T ImGuiStorage_GetVoidPtrRef
0000000000003560 T ImGuiStorage_SetAllInt
00000000000034c0 T ImGuiStorage_SetBool
00000000000034e0 T ImGuiStorage_SetFloat
00000000000034a0 T ImGuiStorage_SetInt
0000000000003500 T ImGuiStorage_SetVoidPtr
0000000000006fa0 T ImGuiStyleMod_ImGuiStyleMod_Float
0000000000006f50 T ImGuiStyleMod_ImGuiStyleMod_Int
0000000000006fd0 T ImGuiStyleMod_ImGuiStyleMod_Vec2
0000000000006f80 T ImGuiStyleMod_destroy
0000000000006f40 T ImGuiStyleVarInfo_GetVarPtr
0000000000002b90 T ImGuiStyle_ImGuiStyle
0000000000002bd0 T ImGuiStyle_ScaleAllSizes
0000000000002bb0 T ImGuiStyle_destroy
00000000000087d0 T ImGuiTabBar_ImGuiTabBar
00000000000087f0 T ImGuiTabBar_destroy
0000000000008760 T ImGuiTabItem_ImGuiTabItem
00000000000087b0 T ImGuiTabItem_destroy
0000000000008a90 T ImGuiTableColumnSettings_ImGuiTableColumnSettings
0000000000008ad0 T ImGuiTableColumnSettings_destroy
0000000000002b40 T ImGuiTableColumnSortSpecs_ImGuiTableColumnSortSpecs
0000000000002b70 T ImGuiTableColumnSortSpecs_destroy
0000000000008830 T ImGuiTableColumn_ImGuiTableColumn
00000000000088b0 T ImGuiTableColumn_destroy
00000000000088d0 T ImGuiTableInstanceData_ImGuiTableInstanceData
0000000000008900 T ImGuiTableInstanceData_destroy
0000000000008b40 T ImGuiTableSettings_GetColumnSettings
0000000000008af0 T ImGuiTableSettings_ImGuiTableSettings
0000000000008b20 T ImGuiTableSettings_destroy
0000000000002b00 T ImGuiTableSortSpecs_ImGuiTableSortSpecs
0000000000002b20 T ImGuiTableSortSpecs_destroy
00000000000089e0 T ImGuiTableTempData_ImGuiTableTempData
0000000000008a40 T ImGuiTableTempData_destroy
0000000000008920 T ImGuiTable_ImGuiTable
0000000000008980 T ImGuiTable_destroy
00000000000030e0 T ImGuiTextBuffer_ImGuiTextBuffer
0000000000003390 T ImGuiTextBuffer_append
000000000000bc00 T ImGuiTextBuffer_appendf
00000000000033a0 T ImGuiTextBuffer_appendfv
0000000000003140 T ImGuiTextBuffer_begin
0000000000003370 T ImGuiTextBuffer_c_str
00000000000031f0 T ImGuiTextBuffer_clear
0000000000003110 T ImGuiTextBuffer_destroy
00000000000031e0 T ImGuiTextBuffer_empty
0000000000003180 T ImGuiTextBuffer_end
0000000000003320 T ImGuiTextBuffer_reserve
0000000000003220 T ImGuiTextBuffer_resize
00000000000031d0 T ImGuiTextBuffer_size
0000000000003020 T ImGuiTextFilter_Build
0000000000003030 T ImGuiTextFilter_Clear
0000000000003000 T ImGuiTextFilter_Draw
0000000000002f90 T ImGuiTextFilter_ImGuiTextFilter
0000000000003040 T ImGuiTextFilter_IsActive
0000000000003010 T ImGuiTextFilter_PassFilter
0000000000002fc0 T ImGuiTextFilter_destroy
0000000000006e60 T ImGuiTextIndex_append
0000000000006d80 T ImGuiTextIndex_clear
0000000000006dc0 T ImGuiTextIndex_get_line_begin
0000000000006e10 T ImGuiTextIndex_get_line_end
0000000000006db0 T ImGuiTextIndex_size
0000000000003050 T ImGuiTextRange_ImGuiTextRange_Nil
0000000000003090 T ImGuiTextRange_ImGuiTextRange_Str
0000000000003070 T ImGuiTextRange_destroy
00000000000030c0 T ImGuiTextRange_empty
00000000000030d0 T ImGuiTextRange_split
0000000000007a20 T ImGuiTypingSelectState_Clear
00000000000079b0 T ImGuiTypingSelectState_ImGuiTypingSelectState
0000000000007a00 T ImGuiTypingSelectState_destroy
0000000000008170 T ImGuiViewportP_CalcWorkRectPos
0000000000008190 T ImGuiViewportP_CalcWorkRectSize
0000000000008160 T ImGuiViewportP_ClearRequestFlags
00000000000082d0 T ImGuiViewportP_GetBuildWorkRect
0000000000008270 T ImGuiViewportP_GetMainRect
00000000000082a0 T ImGuiViewportP_GetWorkRect
0000000000007f70 T ImGuiViewportP_ImGuiViewportP
000000000000002c t ImGuiViewportP_ImGuiViewportP.cold
0000000000008200 T ImGuiViewportP_UpdateWorkRect
00000000000080b0 T ImGuiViewportP_destroy
0000000000005230 T ImGuiViewport_GetCenter
0000000000005250 T ImGuiViewport_GetWorkCenter
0000000000005190 T ImGuiViewport_ImGuiViewport
00000000000051e0 T ImGuiViewport_destroy
0000000000002df0 T ImGuiWindowClass_ImGuiWindowClass
0000000000002e20 T ImGuiWindowClass_destroy
00000000000083b0 T ImGuiWindowSettings_GetName
0000000000008350 T ImGuiWindowSettings_ImGuiWindowSettings
0000000000008390 T ImGuiWindowSettings_destroy
0000000000008680 T ImGuiWindow_GetIDFromPos
00000000000086a0 T ImGuiWindow_GetIDFromRectangle
0000000000008670 T ImGuiWindow_GetID_Int
0000000000008660 T ImGuiWindow_GetID_Ptr
0000000000008650 T ImGuiWindow_GetID_Str
00000000000085e0 T ImGuiWindow_ImGuiWindow
0000000000008720 T ImGuiWindow_MenuBarRect
00000000000086c0 T ImGuiWindow_Rect
00000000000086f0 T ImGuiWindow_TitleBarRect
0000000000008620 T ImGuiWindow_destroy
00000000000067f0 T ImRect_Add_Rect
00000000000067a0 T ImRect_Add_Vec2
0000000000006a70 T ImRect_AsVec4
0000000000006900 T ImRect_ClipWith
0000000000006980 T ImRect_ClipWithFull
00000000000066d0 T ImRect_ContainsWithPad
0000000000006680 T ImRect_Contains_Rect
0000000000006630 T ImRect_Contains_Vec2
0000000000006840 T ImRect_Expand_Float
0000000000006860 T ImRect_Expand_Vec2
0000000000006a20 T ImRect_Floor
00000000000065b0 T ImRect_GetArea
0000000000006600 T ImRect_GetBL
0000000000006620 T ImRect_GetBR
0000000000006550 T ImRect_GetCenter
00000000000065a0 T ImRect_GetHeight
0000000000006570 T ImRect_GetSize
00000000000065d0 T ImRect_GetTL
00000000000065e0 T ImRect_GetTR
0000000000006590 T ImRect_GetWidth
0000000000006520 T ImRect_ImRect_Float
0000000000006480 T ImRect_ImRect_Nil
00000000000064c0 T ImRect_ImRect_Vec2
00000000000064f0 T ImRect_ImRect_Vec4
0000000000006a40 T ImRect_IsInverted
0000000000006740 T ImRect_Overlaps
0000000000006a60 T ImRect_ToVec4
0000000000006890 T ImRect_Translate
00000000000068c0 T ImRect_TranslateX
00000000000068e0 T ImRect_TranslateY
00000000000064a0 T ImRect_destroy
0000000000004940 T ImTextureData_Create
0000000000004950 T ImTextureData_DestroyPixels
00000000000049f0 T ImTextureData_GetPitch
0000000000004960 T ImTextureData_GetPixels
0000000000004990 T ImTextureData_GetPixelsAt
00000000000049e0 T ImTextureData_GetSizeInBytes
0000000000004a10 T ImTextureData_GetTexID
0000000000004a00 T ImTextureData_GetTexRef
00000000000048b0 T ImTextureData_ImTextureData
0000000000004a30 T ImTextureData_SetStatus
0000000000004a20 T ImTextureData_SetTexID
0000000000004900 T ImTextureData_destroy
0000000000000270 T ImTextureRef_GetTexID
0000000000000200 T ImTextureRef_ImTextureRef_Nil
0000000000000250 T ImTextureRef_ImTextureRef_TextureID
0000000000000230 T ImTextureRef_destroy
0000000000006330 T ImVec1_ImVec1_Float
00000000000062f0 T ImVec1_ImVec1_Nil
0000000000006310 T ImVec1_destroy
0000000000000160 T ImVec2_ImVec2_Float
0000000000000120 T ImVec2_ImVec2_Nil
0000000000000140 T ImVec2_destroy
00000000000063a0 T ImVec2i_ImVec2i_Int
0000000000006360 T ImVec2i_ImVec2i_Nil
0000000000006380 T ImVec2i_destroy
00000000000063d0 T ImVec2ih_ImVec2ih_Nil
0000000000006440 T ImVec2ih_ImVec2ih_Vec2
0000000000006410 T ImVec2ih_ImVec2ih_short
00000000000063f0 T ImVec2ih_destroy
00000000000001d0 T ImVec4_ImVec4_Float
0000000000000190 T ImVec4_ImVec4_Nil
00000000000001b0 T ImVec4_destroy
000000000000bd40 T ImVector_ImWchar_Init
000000000000bd60 T ImVector_ImWchar_UnInit
000000000000bce0 T ImVector_ImWchar_create
000000000000bd10 T ImVector_ImWchar_destroy
                 U _Unwind_Resume
                 U _Z10ImFileOpenPKcS0_
                 U _Z10ImFileReadPvyyP8_IO_FILE
                 U _Z10ImHashDataPKvmj
                 U _Z10ImStrnicmpPKcS0_m
                 U _Z11ImFileCloseP8_IO_FILE
                 U _Z11ImFileWritePKvyyP8_IO_FILE
                 U _Z11ImStrdupcpyPcPmPKc
                 U _Z12ImLowerBoundP16ImGuiStoragePairS0_j
                 U _Z13ImFileGetSizeP8_IO_FILE
                 U _Z13ImStrchrRangePKcS0_c
                 U _Z13ImStreolRangePKcS0_
                 U _Z14ImStrSkipBlankPKc
                 U _Z15ImFormatStringVPcmPKcP13__va_list_tag
                 U _Z15ImStrTrimBlanksPc
                 U _Z15ImTextStrToUtf8PciPKtS1_
000000000000bd90 T _Z16GetCimguiStoragev
                 U _Z16ImTextCharToUtf8Pcj
                 U _Z16ImTextCountLinesPKcS0_
                 U _Z17ImBezierCubicCalcRK6ImVec2S1_S1_S1_f
                 U _Z17ImTextStrFromUtf8PtiPKcS1_PS1_
                 U _Z18ImAlphaBlendColorsjj
                 U _Z18ImFileLoadToMemoryPKcS0_Pmi
                 U _Z18ImLineClosestPointRK6ImVec2S1_S1_
                 U _Z18ImTextCharFromUtf8PjPKcS1_
                 U _Z19ImFontAtlasBakedAddP11ImFontAtlasP6ImFontffj
                 U _Z19ImFontAtlasPackInitP11ImFontAtlas
                 U _Z20ImFontAtlasBuildInitP11ImFontAtlas
                 U _Z20ImFontAtlasBuildMainP11ImFontAtlas
                 U _Z20ImFontCalcTextSizeExP6ImFontfffPKcS2_S2_PS2_P6ImVec2i
                 U _Z20ImParseFormatFindEndPKc
                 U _Z21ImBezierQuadraticCalcRK6ImVec2S1_S1_f
                 U _Z21ImFontAtlasBakedGetIdjff
                 U _Z21ImFontAtlasBuildClearP11ImFontAtlas
                 U _Z21ImFontAtlasTextureAddP11ImFontAtlasii
                 U _Z22ImFontAtlasPackAddRectP11ImFontAtlasiiP20ImFontAtlasRectEntry
                 U _Z22ImFontAtlasPackGetRectP11ImFontAtlasi
                 U _Z22ImFontAtlasTextureGrowP11ImFontAtlasii
                 U _Z22ImParseFormatFindStartPKc
                 U _Z22ImParseFormatPrecisionPKci
                 U _Z22ImTriangleClosestPointRK6ImVec2S1_S1_S1_
                 U _Z23ImFontAtlasBakedDiscardP11ImFontAtlasP6ImFontP11ImFontBaked
                 U _Z23ImFontAtlasBuildDestroyP11ImFontAtlas
                 U _Z23ImTriangleContainsPointRK6ImVec2S1_S1_S1_
                 U _Z24ImFontAtlasBakedGetOrAddP11ImFontAtlasP6ImFontff
                 U _Z24ImFontAtlasTextureRepackP11ImFontAtlasii
                 U _Z24ImTextCountCharsFromUtf8PKcS0_
                 U _Z25ImBezierCubicClosestPointRK6ImVec2S1_S1_S1_S1_i
                 U _Z25ImFontAtlasFontInitOutputP11ImFontAtlasP6ImFont
                 U _Z25ImFontAtlasFontSourceInitP11ImFontAtlasP12ImFontConfig
                 U _Z25ImFontAtlasTextureCompactP11ImFontAtlas
                 U _Z25ImFontAtlasUpdateNewFrameP11ImFontAtlasib
                 U _Z26ImFontAtlasPackDiscardRectP11ImFontAtlasi
                 U _Z26ImFontAtlasPackGetRectSafeP11ImFontAtlasi
                 U _Z26ImTextureDataGetFormatName15ImTextureFormat
                 U _Z26ImTextureDataGetStatusName15ImTextureStatus
0000000000000000 T _Z26Platform_GetWindowPos_hookP13ImGuiViewport
                 U _Z27ImFontAtlasFontDiscardBakesP11ImFontAtlasP6ImFonti
                 U _Z27ImFontAtlasTextureBlockCopyP13ImTextureDataiiS0_iiii
                 U _Z27ImFontAtlasTextureBlockFillP13ImTextureDataiiiij
                 U _Z27ImFontAtlasTextureMakeSpaceP11ImFontAtlas
                 U _Z27ImFormatStringToTempBufferVPPKcS1_S0_P13__va_list_tag
                 U _Z27ImTextCountUtf8BytesFromStrPKtS0_
                 U _Z27ImTriangleBarycentricCoordsRK6ImVec2S1_S1_S1_RfS2_S2_
0000000000000090 T _Z27Platform_GetWindowSize_hookP13ImGuiViewport
                 U _Z28ImFontAtlasBakedAddFontGlyphP11ImFontAtlasP11ImFontBakedP12ImFontConfigPK11ImFontGlyph
                 U _Z28ImFontAtlasBuildDiscardBakesP11ImFontAtlasi
                 U _Z28ImFontAtlasFontDestroyOutputP11ImFontAtlasP6ImFont
                 U _Z28ImFontCalcWordWrapPositionExP6ImFontfPKcS2_fi
                 U _Z28ImParseFormatTrimDecorationsPKcPcm
                 U _Z28ImTextCountUtf8BytesFromCharPKcS0_
                 U _Z30ImFontAtlasBuildUpdatePointersP11ImFontAtlas
                 U _Z30ImFontAtlasFontSourceAddToFontP11ImFontAtlasP6ImFontP12ImFontConfig
                 U _Z30ImFontAtlasTextureBlockConvertPKh15ImTextureFormatiPhS1_iii
                 U _Z30ImHashSkipUncontributingPrefixPKc
                 U _Z31ImFontAtlasBakedGetClosestMatchP11ImFontAtlasP6ImFontff
                 U _Z31ImFontAtlasBuildSetupFontLoaderP11ImFontAtlasPK12ImFontLoader
                 U _Z31ImTextCalcWordWrapNextLineStartPKcS0_i
                 U _Z31ImTextFindPreviousUtf8CodepointPKcS0_
                 U _Z32ImFontAtlasAddDrawListSharedDataP11ImFontAtlasP20ImDrawListSharedData
                 U _Z32ImFontAtlasBakedDiscardFontGlyphP11ImFontAtlasP6ImFontP11ImFontBakedP11ImFontGlyph
                 U _Z32ImFontAtlasFontDestroySourceDataP11ImFontAtlasP12ImFontConfig
                 U _Z32ImFontAtlasGetMouseCursorTexDataP11ImFontAtlasiP6ImVec2S2_S2_S2_
                 U _Z32ImParseFormatSanitizeForPrintingPKcPcm
                 U _Z32ImParseFormatSanitizeForScanningPKcPcm
                 U _Z33ImFontAtlasTextureGetSizeEstimateP11ImFontAtlas
                 U _Z34ImBezierCubicClosestPointCasteljauRK6ImVec2S1_S1_S1_S1_f
                 U _Z34ImFontAtlasBakedSetFontGlyphBitmapP11ImFontAtlasP11ImFontBakedP12ImFontConfigP11ImFontGlyphP13ImTextureRectPKh15ImTextureFormati
                 U _Z34ImFontAtlasDebugLogTextureRequestsP11ImFontAtlas
                 U _Z34ImFontAtlasTextureBlockPostProcessP26ImFontAtlasPostProcessData
                 U _Z34ImFontAtlasTextureBlockQueueUploadP11ImFontAtlasP13ImTextureDataiiii
                 U _Z34ImFontAtlasUpdateDrawListsTexturesP11ImFontAtlas12ImTextureRefS1_
                 U _Z35ImFontAtlasRemoveDrawListSharedDataP11ImFontAtlasP20ImDrawListSharedData
                 U _Z35ImTextureDataGetFormatBytesPerPixel15ImTextureFormat
                 U _Z36ImFontAtlasBuildGetOversampleFactorsP12ImFontConfigP11ImFontBakedPiS3_
                 U _Z36ImFontAtlasUpdateDrawListsSharedDataP11ImFontAtlas
                 U _Z37ImFontAtlasBakedAddFontGlyphAdvancedXP11ImFontAtlasP11ImFontBakedP12ImFontConfigtf
                 U _Z38ImFontAtlasBuildRenderBitmapFromStringP11ImFontAtlasiiiiPKcc
                 U _Z38ImFontAtlasBuildSetupFontSpecialGlyphsP11ImFontAtlasP6ImFontP12ImFontConfig
                 U _Z38ImFontAtlasGetFontLoaderForStbTruetypev
                 U _Z42ImFontAtlasTextureBlockPostProcessMultiplyP26ImFontAtlasPostProcessDataf
                 U _Z43ImFontAtlasBuildLegacyPreloadAllGlyphRangesP11ImFontAtlas
                 U _Z8ImMemdupPKvm
                 U _Z8ImStrbolPKcS0_
                 U _Z8ImStrdupPKc
                 U _Z9ImHashStrPKcmj
                 U _Z9ImStricmpPKcS0_
                 U _Z9ImStristrPKcS0_S0_S0_
                 U _Z9ImStrlenWPKt
                 U _Z9ImStrncpyPcPKcm
                 U _ZN10ImDrawData11AddDrawListEP10ImDrawList
                 U _ZN10ImDrawData14ScaleClipRectsERK6ImVec2
                 U _ZN10ImDrawData17DeIndexAllBuffersEv
                 U _ZN10ImDrawData5ClearEv
                 U _ZN10ImDrawList10AddDrawCmdEv
                 U _ZN10ImDrawList10AddEllipseERK6ImVec2S2_jfif
                 U _ZN10ImDrawList10PopTextureEv
                 U _ZN10ImDrawList10PrimQuadUVERK6ImVec2S2_S2_S2_S2_S2_S2_S2_j
                 U _ZN10ImDrawList10PrimRectUVERK6ImVec2S2_S2_S2_j
                 U _ZN10ImDrawList11AddCallbackEPFvPKS_PK9ImDrawCmdEPvm
                 U _ZN10ImDrawList11AddPolylineEPK6ImVec2ijif
                 U _ZN10ImDrawList11AddTriangleERK6ImVec2S2_S2_jf
                 U _ZN10ImDrawList11PopClipRectEv
                 U _ZN10ImDrawList11PrimReserveEii
                 U _ZN10ImDrawList11PushTextureE12ImTextureRef
                 U _ZN10ImDrawList11_PathArcToNERK6ImVec2fffi
                 U _ZN10ImDrawList11_SetTextureE12ImTextureRef
                 U _ZN10ImDrawList12AddImageQuadE12ImTextureRefRK6ImVec2S3_S3_S3_S3_S3_S3_S3_j
                 U _ZN10ImDrawList12PushClipRectERK6ImVec2S2_b
                 U _ZN10ImDrawList13AddNgonFilledERK6ImVec2fji
                 U _ZN10ImDrawList13AddQuadFilledERK6ImVec2S2_S2_S2_j
                 U _ZN10ImDrawList13AddRectFilledERK6ImVec2S2_jfi
                 U _ZN10ImDrawList13PathArcToFastERK6ImVec2fii
                 U _ZN10ImDrawList13PrimUnreserveEii
                 U _ZN10ImDrawList14AddBezierCubicERK6ImVec2S2_S2_S2_jfi
                 U _ZN10ImDrawList15AddCircleFilledERK6ImVec2fji
                 U _ZN10ImDrawList15AddImageRoundedE12ImTextureRefRK6ImVec2S3_S3_S3_jfi
                 U _ZN10ImDrawList16AddEllipseFilledERK6ImVec2S2_jfi
                 U _ZN10ImDrawList16_ClearFreeMemoryEv
                 U _ZN10ImDrawList16_PathArcToFastExERK6ImVec2fiii
                 U _ZN10ImDrawList17AddTriangleFilledERK6ImVec2S2_S2_j
                 U _ZN10ImDrawList17_OnChangedTextureEv
                 U _ZN10ImDrawList17_PopUnusedDrawCmdEv
                 U _ZN10ImDrawList17_ResetForNewFrameEv
                 U _ZN10ImDrawList17_TryMergeDrawCmdsEv
                 U _ZN10ImDrawList18AddBezierQuadraticERK6ImVec2S2_S2_jfi
                 U _ZN10ImDrawList18_OnChangedClipRectEv
                 U _ZN10ImDrawList19AddConvexPolyFilledEPK6ImVec2ij
                 U _ZN10ImDrawList19PathEllipticalArcToERK6ImVec2S2_fffi
                 U _ZN10ImDrawList19_OnChangedVtxOffsetEv
                 U _ZN10ImDrawList20AddConcavePolyFilledEPK6ImVec2ij
                 U _ZN10ImDrawList22PathBezierCubicCurveToERK6ImVec2S2_S2_i
                 U _ZN10ImDrawList22PushClipRectFullScreenEv
                 U _ZN10ImDrawList22_SetDrawListSharedDataEP20ImDrawListSharedData
                 U _ZN10ImDrawList23AddRectFilledMultiColorERK6ImVec2S2_jjjj
                 U _ZN10ImDrawList26PathBezierQuadraticCurveToERK6ImVec2S2_i
                 U _ZN10ImDrawList7AddLineERK6ImVec2S2_jf
                 U _ZN10ImDrawList7AddNgonERK6ImVec2fjif
                 U _ZN10ImDrawList7AddQuadERK6ImVec2S2_S2_S2_jf
                 U _ZN10ImDrawList7AddRectERK6ImVec2S2_jfif
                 U _ZN10ImDrawList7AddTextEP6ImFontfRK6ImVec2jPKcS6_fPK6ImVec4
                 U _ZN10ImDrawList7AddTextERK6ImVec2jPKcS4_
                 U _ZN10ImDrawList8AddImageE12ImTextureRefRK6ImVec2S3_S3_S3_j
                 U _ZN10ImDrawList8PathRectERK6ImVec2S2_fi
                 U _ZN10ImDrawList8PrimRectERK6ImVec2S2_j
                 U _ZN10ImDrawList9AddCircleERK6ImVec2fjif
                 U _ZN10ImDrawList9PathArcToERK6ImVec2fffi
                 U _ZN10ImDrawListC1EP20ImDrawListSharedData
                 U _ZN10ImDrawListD1Ev
                 U _ZN10ImGuiStyle13ScaleAllSizesEf
                 U _ZN10ImGuiStyleC1Ev
                 U _ZN11ImFontAtlas10ClearFontsEv
                 U _ZN11ImFontAtlas10RemoveFontEP6ImFont
                 U _ZN11ImFontAtlas12ClearTexDataEv
                 U _ZN11ImFontAtlas12CompactCacheEv
                 U _ZN11ImFontAtlas13AddCustomRectEiiP15ImFontAtlasRect
                 U _ZN11ImFontAtlas13SetFontLoaderEPK12ImFontLoader
                 U _ZN11ImFontAtlas14AddFontDefaultEPK12ImFontConfig
                 U _ZN11ImFontAtlas14ClearInputDataEv
                 U _ZN11ImFontAtlas16RemoveCustomRectEi
                 U _ZN11ImFontAtlas18AddFontFromFileTTFEPKcfPK12ImFontConfigPKt
                 U _ZN11ImFontAtlas20AddFontFromMemoryTTFEPvifPK12ImFontConfigPKt
                 U _ZN11ImFontAtlas21GetGlyphRangesDefaultEv
                 U _ZN11ImFontAtlas30AddFontFromMemoryCompressedTTFEPKvifPK12ImFontConfigPKt
                 U _ZN11ImFontAtlas36AddFontFromMemoryCompressedBase85TTFEPKcfPK12ImFontConfigPKt
                 U _ZN11ImFontAtlas5ClearEv
                 U _ZN11ImFontAtlas7AddFontEPK12ImFontConfig
                 U _ZN11ImFontAtlasC1Ev
                 U _ZN11ImFontAtlasD1Ev
                 U _ZN11ImFontBaked13IsGlyphLoadedEt
                 U _ZN11ImFontBaked14GetCharAdvanceEt
                 U _ZN11ImFontBaked15ClearOutputDataEv
                 U _ZN11ImFontBaked19FindGlyphNoFallbackEt
                 U _ZN11ImFontBaked9FindGlyphEt
                 U _ZN11ImFontBakedC1Ev
                 U _ZN11ImGuiTabBarC1Ev
                 U _ZN11ImGuiWindow12GetIDFromPosERK6ImVec2
                 U _ZN11ImGuiWindow18GetIDFromRectangleERK6ImRect
                 U _ZN11ImGuiWindow5GetIDEPKcS1_
                 U _ZN11ImGuiWindow5GetIDEPKv
                 U _ZN11ImGuiWindow5GetIDEi
                 U _ZN11ImGuiWindowC1EP12ImGuiContextPKc
                 U _ZN11ImGuiWindowD1Ev
                 U _ZN12ImFontConfigC1Ev
                 U _ZN12ImGuiContextC1EP11ImFontAtlas
0000000000000000 W _ZN12ImGuiContextD1Ev
0000000000000000 W _ZN12ImGuiContextD2Ev
0000000000000000 n _ZN12ImGuiContextD5Ev
                 U _ZN12ImGuiStorage10GetBoolRefEjb
                 U _ZN12ImGuiStorage10SetVoidPtrEjPv
                 U _ZN12ImGuiStorage11GetFloatRefEjf
                 U _ZN12ImGuiStorage13GetVoidPtrRefEjPv
                 U _ZN12ImGuiStorage14BuildSortByKeyEv
                 U _ZN12ImGuiStorage6SetIntEji
                 U _ZN12ImGuiStorage7SetBoolEjb
                 U _ZN12ImGuiStorage8SetFloatEjf
                 U _ZN12ImGuiStorage9GetIntRefEji
                 U _ZN12ImGuiStorage9SetAllIntEi
                 U _ZN13ImGuiDockNodeC1Ej
                 U _ZN13ImGuiDockNodeD1Ev
                 U _ZN13ImTextureData13DestroyPixelsEv
                 U _ZN13ImTextureData6CreateE15ImTextureFormatii
                 U _ZN14ImGuiTextIndex6appendEPKcii
                 U _ZN15ImGuiPlatformIO21ClearPlatformHandlersEv
                 U _ZN15ImGuiPlatformIO21ClearRendererHandlersEv
                 U _ZN15ImGuiPlatformIOC1Ev
                 U _ZN15ImGuiTextBuffer11EmptyStringE
                 U _ZN15ImGuiTextBuffer6appendEPKcS1_
                 U _ZN15ImGuiTextBuffer8appendfvEPKcP13__va_list_tag
                 U _ZN15ImGuiTextFilter4DrawEPKcf
                 U _ZN15ImGuiTextFilter5BuildEv
                 U _ZN15ImGuiTextFilterC1EPKc
                 U _ZN16ImGuiListClipper17SeekCursorForItemEi
                 U _ZN16ImGuiListClipper19IncludeItemsByIndexEii
                 U _ZN16ImGuiListClipper3EndEv
                 U _ZN16ImGuiListClipper4StepEv
                 U _ZN16ImGuiListClipper5BeginEif
                 U _ZN16ImGuiListClipperC1Ev
                 U _ZN16ImGuiListClipperD1Ev
                 U _ZN16ImGuiMenuColumns11DeclColumnsEffff
                 U _ZN16ImGuiMenuColumns18CalcNextTotalWidthEb
                 U _ZN16ImGuiMenuColumns6UpdateEfb
                 U _ZN18ImDrawListSplitter15ClearFreeMemoryEv
                 U _ZN18ImDrawListSplitter17SetCurrentChannelEP10ImDrawListi
                 U _ZN18ImDrawListSplitter5MergeEP10ImDrawList
                 U _ZN18ImDrawListSplitter5SplitEP10ImDrawListi
                 U _ZN19ImGuiInputTextState11CursorClampEv
                 U _ZN19ImGuiInputTextState12OnKeyPressedEi
                 U _ZN19ImGuiInputTextState13OnCharPressedEj
                 U _ZN19ImGuiInputTextState14ClearSelectionEv
                 U _ZN19ImGuiInputTextState15CursorAnimResetEv
                 U _ZN19ImGuiInputTextState25ReloadUserBufAndMoveToEndEv
                 U _ZN19ImGuiInputTextState25ReloadUserBufAndSelectAllEv
                 U _ZN19ImGuiInputTextState29ReloadUserBufAndKeepSelectionEv
                 U _ZN19ImGuiInputTextState9SelectAllEv
                 U _ZN19ImGuiInputTextStateC1Ev
                 U _ZN19ImGuiInputTextStateD1Ev
                 U _ZN20ImDrawListSharedData29SetCircleTessellationMaxErrorEf
                 U _ZN20ImDrawListSharedDataC1Ev
                 U _ZN20ImDrawListSharedDataD1Ev
                 U _ZN24ImFontGlyphRangesBuilder11BuildRangesEP8ImVectorItE
                 U _ZN24ImFontGlyphRangesBuilder7AddTextEPKcS1_
                 U _ZN24ImFontGlyphRangesBuilder9AddRangesEPKt
                 U _ZN26ImGuiInputTextCallbackData11DeleteCharsEii
                 U _ZN26ImGuiInputTextCallbackData11InsertCharsEiPKcS1_
                 U _ZN26ImGuiInputTextCallbackDataC1Ev
                 U _ZN26ImGuiSelectionBasicStorage13ApplyRequestsEP18ImGuiMultiSelectIO
                 U _ZN26ImGuiSelectionBasicStorage15SetItemSelectedEjb
                 U _ZN26ImGuiSelectionBasicStorage19GetNextSelectedItemEPPvPj
                 U _ZN26ImGuiSelectionBasicStorage4SwapERS_
                 U _ZN26ImGuiSelectionBasicStorage5ClearEv
                 U _ZN26ImGuiSelectionBasicStorageC1Ev
                 U _ZN29ImGuiSelectionExternalStorage13ApplyRequestsEP18ImGuiMultiSelectIO
                 U _ZN29ImGuiSelectionExternalStorageC1Ev
                 U _ZN5ImGui10BeginChildEPKcRK6ImVec2ii
                 U _ZN5ImGui10BeginChildEjRK6ImVec2ii
                 U _ZN5ImGui10BeginComboEPKcS1_i
                 U _ZN5ImGui10BeginGroupEv
                 U _ZN5ImGui10BeginPopupEPKci
                 U _ZN5ImGui10BeginTableEPKciiRK6ImVec2f
                 U _ZN5ImGui10ColorEdit3EPKcPfi
                 U _ZN5ImGui10ColorEdit4EPKcPfi
                 U _ZN5ImGui10DragFloat2EPKcPffffS1_i
                 U _ZN5ImGui10DragFloat3EPKcPffffS1_i
                 U _ZN5ImGui10DragFloat4EPKcPffffS1_i
                 U _ZN5ImGui10DragScalarEPKciPvfPKvS4_S1_i
                 U _ZN5ImGui10EndColumnsEv
                 U _ZN5ImGui10EndListBoxEv
                 U _ZN5ImGui10EndMenuBarEv
                 U _ZN5ImGui10EndTabItemEv
                 U _ZN5ImGui10EndTooltipEv
                 U _ZN5ImGui10GetKeyDataEP12ImGuiContext8ImGuiKey
                 U _ZN5ImGui10GetKeyNameE8ImGuiKey
                 U _ZN5ImGui10GetScrollXEv
                 U _ZN5ImGui10GetScrollYEv
                 U _ZN5ImGui10GetVersionEv
                 U _ZN5ImGui10InitializeEv
                 U _ZN5ImGui10InputFloatEPKcPfffS1_i
                 U _ZN5ImGui10LabelTextVEPKcS1_P13__va_list_tag
                 U _ZN5ImGui10LogButtonsEv
                 U _ZN5ImGui10MenuItemExEPKcS1_S1_bb
                 U _ZN5ImGui10NextColumnEv
                 U _ZN5ImGui10RenderTextE6ImVec2PKcS2_b
                 U _ZN5ImGui10SelectableEPKcPbiRK6ImVec2
                 U _ZN5ImGui10SelectableEPKcbiRK6ImVec2
                 U _ZN5ImGui10SetFocusIDEjP11ImGuiWindow
                 U _ZN5ImGui10SetScrollXEP11ImGuiWindowf
                 U _ZN5ImGui10SetScrollXEf
                 U _ZN5ImGui10SetScrollYEP11ImGuiWindowf
                 U _ZN5ImGui10SetScrollYEf
                 U _ZN5ImGui10SliderInt2EPKcPiiiS1_i
                 U _ZN5ImGui10SliderInt3EPKcPiiiS1_i
                 U _ZN5ImGui10SliderInt4EPKcPiiiS1_i
                 U _ZN5ImGui10TreeNodeExEPKci
                 U _ZN5ImGui10VSliderIntEPKcRK6ImVec2PiiiS1_i
                 U _ZN5ImGui11ArrowButtonEPKc8ImGuiDir
                 U _ZN5ImGui11BeginDockedEP11ImGuiWindowPb
                 U _ZN5ImGui11BeginMenuExEPKcS1_b
                 U _ZN5ImGui11BeginTabBarEPKci
                 U _ZN5ImGui11BulletTextVEPKcP13__va_list_tag
                 U _ZN5ImGui11CloseButtonEjRK6ImVec2
                 U _ZN5ImGui11ColorButtonEPKcRK6ImVec4iRK6ImVec2
                 U _ZN5ImGui11DragScalarNEPKciPvifPKvS4_S1_i
                 U _ZN5ImGui11EndDisabledEv
                 U _ZN5ImGui11FocusWindowEP11ImGuiWindowi
                 U _ZN5ImGui11GetColorU32ERK6ImVec4
                 U _ZN5ImGui11GetColorU32Eif
                 U _ZN5ImGui11GetColorU32Ejf
                 U _ZN5ImGui11GetDrawDataEv
                 U _ZN5ImGui11GetFontSizeEv
                 U _ZN5ImGui11GetKeyOwnerE8ImGuiKey
                 U _ZN5ImGui11GetMousePosEv
                 U _ZN5ImGui11ImageButtonEPKc12ImTextureRefRK6ImVec2S5_S5_RK6ImVec4S8_
                 U _ZN5ImGui11ImageWithBgE12ImTextureRefRK6ImVec2S3_S3_RK6ImVec4S6_
                 U _ZN5ImGui11InputDoubleEPKcPdddS1_i
                 U _ZN5ImGui11InputFloat2EPKcPfS1_i
                 U _ZN5ImGui11InputFloat3EPKcPfS1_i
                 U _ZN5ImGui11InputFloat4EPKcPfS1_i
                 U _ZN5ImGui11InputScalarEPKciPvPKvS4_S1_i
                 U _ZN5ImGui11InputTextExEPKcS1_PciRK6ImVec2iPFiP26ImGuiInputTextCallbackDataEPv
                 U _ZN5ImGui11IsClippedExERK6ImRectj
                 U _ZN5ImGui11IsMouseDownEi
                 U _ZN5ImGui11IsMouseDownEij
                 U _ZN5ImGui11IsPopupOpenEPKci
                 U _ZN5ImGui11IsPopupOpenEji
                 U _ZN5ImGui11KeepAliveIDEj
                 U _ZN5ImGui11LogToBufferEi
                 U _ZN5ImGui11OpenPopupExEji
                 U _ZN5ImGui11PopClipRectEv
                 U _ZN5ImGui11PopItemFlagEv
                 U _ZN5ImGui11PopStyleVarEi
                 U _ZN5ImGui11ProgressBarEfRK6ImVec2PKc
                 U _ZN5ImGui11RadioButtonEPKcPii
                 U _ZN5ImGui11RadioButtonEPKcb
                 U _ZN5ImGui11RenderArrowEP10ImDrawList6ImVec2j8ImGuiDirf
                 U _ZN5ImGui11RenderFrameE6ImVec2S0_jbf
                 U _ZN5ImGui11ScrollbarExERK6ImRectj9ImGuiAxisPxxxi
                 U _ZN5ImGui11SeparatorExEif
                 U _ZN5ImGui11SetActiveIDEjP11ImGuiWindow
                 U _ZN5ImGui11SetKeyOwnerE8ImGuiKeyji
                 U _ZN5ImGui11SetTooltipVEPKcP13__va_list_tag
                 U _ZN5ImGui11SliderAngleEPKcPfffS1_i
                 U _ZN5ImGui11SliderFloatEPKcPfffS1_i
                 U _ZN5ImGui11SmallButtonEPKc
                 U _ZN5ImGui11TableEndRowEP10ImGuiTable
                 U _ZN5ImGui11TableHeaderEPKc
                 U _ZN5ImGui11TableRemoveEP10ImGuiTable
                 U _ZN5ImGui11TreeNodeExVEPKciS1_P13__va_list_tag
                 U _ZN5ImGui11TreeNodeExVEPKviPKcP13__va_list_tag
                 U _ZN5ImGui12BeginChildExEPKcjRK6ImVec2ii
                 U _ZN5ImGui12BeginColumnsEPKcii
                 U _ZN5ImGui12BeginListBoxEPKcRK6ImVec2
                 U _ZN5ImGui12BeginMenuBarEv
                 U _ZN5ImGui12BeginPopupExEji
                 U _ZN5ImGui12BeginTabItemEPKcPbi
                 U _ZN5ImGui12BeginTableExEPKcjiiRK6ImVec2f
                 U _ZN5ImGui12BeginTooltipEv
                 U _ZN5ImGui12CalcItemSizeE6ImVec2ff
                 U _ZN5ImGui12CalcTextSizeEPKcS1_bf
                 U _ZN5ImGui12ColorPicker3EPKcPfi
                 U _ZN5ImGui12ColorPicker4EPKcPfiPKf
                 U _ZN5ImGui12ColorTooltipEPKcPKfi
                 U _ZN5ImGui12DragBehaviorEjiPvfPKvS2_PKci
                 U _ZN5ImGui12EndBoxSelectERK6ImRecti
                 U _ZN5ImGui12GetColumnsIDEPKci
                 U _ZN5ImGui12GetCursorPosEv
                 U _ZN5ImGui12GetFontBakedEv
                 U _ZN5ImGui12GetHoveredIDEv
                 U _ZN5ImGui12GetWindowPosEv
                 U _ZN5ImGui12InputScalarNEPKciPviPKvS4_S1_i
                 U _ZN5ImGui12IsItemActiveEv
                 U _ZN5ImGui12IsItemEditedEv
                 U _ZN5ImGui12IsKeyPressedE8ImGuiKeyb
                 U _ZN5ImGui12IsKeyPressedE8ImGuiKeyij
                 U _ZN5ImGui12PopItemWidthEv
                 U _ZN5ImGui12PushClipRectERK6ImVec2S2_b
                 U _ZN5ImGui12PushItemFlagEib
                 U _ZN5ImGui12PushStyleVarEiRK6ImVec2
                 U _ZN5ImGui12PushStyleVarEif
                 U _ZN5ImGui12RenderBulletEP10ImDrawList6ImVec2j
                 U _ZN5ImGui12ScrollToItemEi
                 U _ZN5ImGui12ScrollToRectEP11ImGuiWindowRK6ImRecti
                 U _ZN5ImGui12SetCursorPosERK6ImVec2
                 U _ZN5ImGui12SetHoveredIDEj
                 U _ZN5ImGui12SetNavWindowEP11ImGuiWindow
                 U _ZN5ImGui12SetWindowPosEP11ImGuiWindowRK6ImVec2i
                 U _ZN5ImGui12SetWindowPosEPKcRK6ImVec2i
                 U _ZN5ImGui12SetWindowPosERK6ImVec2i
                 U _ZN5ImGui12ShrinkWidthsEP20ImGuiShrinkWidthItemiff
                 U _ZN5ImGui12SliderFloat2EPKcPfffS1_i
                 U _ZN5ImGui12SliderFloat3EPKcPfffS1_i
                 U _ZN5ImGui12SliderFloat4EPKcPfffS1_i
                 U _ZN5ImGui12SliderScalarEPKciPvPKvS4_S1_i
                 U _ZN5ImGui12TabBarAddTabEP11ImGuiTabBariP11ImGuiWindow
                 U _ZN5ImGui12TabBarRemoveEP11ImGuiTabBar
                 U _ZN5ImGui12TableEndCellEP10ImGuiTable
                 U _ZN5ImGui12TableNextRowEif
                 U _ZN5ImGui12TestKeyOwnerE8ImGuiKeyj
                 U _ZN5ImGui12TextAlignedVEffPKcP13__va_list_tag
                 U _ZN5ImGui12TextColoredVERK6ImVec4PKcP13__va_list_tag
                 U _ZN5ImGui12TextWrappedVEPKcP13__va_list_tag
                 U _ZN5ImGui12VSliderFloatEPKcRK6ImVec2PfffS1_i
                 U _ZN5ImGui13ArrowButtonExEPKc8ImGuiDir6ImVec2i
                 U _ZN5ImGui13BeginDisabledEb
                 U _ZN5ImGui13BeginTabBarExEP11ImGuiTabBarRK6ImRecti
                 U _ZN5ImGui13CalcItemWidthEv
                 U _ZN5ImGui13CheckboxFlagsEPKcPii
                 U _ZN5ImGui13CheckboxFlagsEPKcPjj
                 U _ZN5ImGui13CheckboxFlagsEPKcPxx
                 U _ZN5ImGui13CheckboxFlagsEPKcPyy
                 U _ZN5ImGui13ClearActiveIDEv
                 U _ZN5ImGui13ClearDragDropEv
                 U _ZN5ImGui13CreateContextEP11ImFontAtlas
                 U _ZN5ImGui13DataTypeClampEiPvPKvS2_
                 U _ZN5ImGui13DebugNodeFontEP6ImFont
                 U _ZN5ImGui13DragIntRange2EPKcPiS2_fiiS1_S1_i
                 U _ZN5ImGui13FixupKeyChordEi
                 U _ZN5ImGui13GetCursorPosXEv
                 U _ZN5ImGui13GetCursorPosYEv
                 U _ZN5ImGui13GetFrameCountEv
                 U _ZN5ImGui13GetIDWithSeedEPKcS1_j
                 U _ZN5ImGui13GetIDWithSeedEij
                 U _ZN5ImGui13GetPlatformIOEP12ImGuiContext
                 U _ZN5ImGui13GetPlatformIOEv
                 U _ZN5ImGui13GetScrollMaxXEv
                 U _ZN5ImGui13GetScrollMaxYEv
                 U _ZN5ImGui13GetWindowSizeEv
                 U _ZN5ImGui13ImageButtonExEj12ImTextureRefRK6ImVec2S3_S3_RK6ImVec4S6_i
                 U _ZN5ImGui13IsItemClickedEi
                 U _ZN5ImGui13IsItemFocusedEv
                 U _ZN5ImGui13IsItemHoveredEi
                 U _ZN5ImGui13IsItemVisibleEv
                 U _ZN5ImGui13IsKeyReleasedE8ImGuiKey
                 U _ZN5ImGui13IsKeyReleasedE8ImGuiKeyj
                 U _ZN5ImGui13IsRectVisibleERK6ImVec2
                 U _ZN5ImGui13IsRectVisibleERK6ImVec2S2_
                 U _ZN5ImGui13IsWindowAboveEP11ImGuiWindowS1_
                 U _ZN5ImGui13ItemHoverableERK6ImRectji
                 U _ZN5ImGui13NavInitWindowEP11ImGuiWindowb
                 U _ZN5ImGui13PlotHistogramEPKcPFfPviES2_iiS1_ff6ImVec2
                 U _ZN5ImGui13PlotHistogramEPKcPKfiiS1_ff6ImVec2i
                 U _ZN5ImGui13PopFocusScopeEv
                 U _ZN5ImGui13PopStyleColorEi
                 U _ZN5ImGui13PushItemWidthEf
                 U _ZN5ImGui13PushStyleVarXEif
                 U _ZN5ImGui13PushStyleVarYEif
                 U _ZN5ImGui13SeparatorTextEPKc
                 U _ZN5ImGui13SetCursorPosXEf
                 U _ZN5ImGui13SetCursorPosYEf
                 U _ZN5ImGui13SetWindowDockEP11ImGuiWindowji
                 U _ZN5ImGui13SetWindowSizeEP11ImGuiWindowRK6ImVec2i
                 U _ZN5ImGui13SetWindowSizeEPKcRK6ImVec2i
                 U _ZN5ImGui13SetWindowSizeERK6ImVec2i
                 U _ZN5ImGui13ShowFontAtlasEP11ImFontAtlas
                 U _ZN5ImGui13ShowUserGuideEv
                 U _ZN5ImGui13SliderScalarNEPKciPviPKvS4_S1_i
                 U _ZN5ImGui13TabItemButtonEPKci
                 U _ZN5ImGui13TableBeginRowEP10ImGuiTable
                 U _ZN5ImGui13TableFindByIDEj
                 U _ZN5ImGui13TempInputTextERK6ImRectjPKcPcii
                 U _ZN5ImGui13TextDisabledVEPKcP13__va_list_tag
                 U _ZN5ImGui13VSliderScalarEPKcRK6ImVec2iPvPKvS7_S1_i
                 U _ZN5ImGui14AddContextHookEP12ImGuiContextPK16ImGuiContextHook
                 U _ZN5ImGui14BeginBoxSelectERK6ImRectP11ImGuiWindowji
                 U _ZN5ImGui14BeginTooltipExEii
                 U _ZN5ImGui14ButtonBehaviorERK6ImRectjPbS3_i
                 U _ZN5ImGui14CollapseButtonEjRK6ImVec2P13ImGuiDockNode
                 U _ZN5ImGui14DataTypeIsZeroEiPKv
                 U _ZN5ImGui14DebugAllocHookEP19ImGuiDebugAllocInfoiPvm
                 U _ZN5ImGui14DebugNodeTableEP10ImGuiTable
                 U _ZN5ImGui14DestroyContextEP12ImGuiContext
                 U _ZN5ImGui14EndMainMenuBarEv
                 U _ZN5ImGui14EndMultiSelectEv
                 U _ZN5ImGui14FindWindowByIDEj
                 U _ZN5ImGui14GetColumnIndexEv
                 U _ZN5ImGui14GetColumnWidthEi
                 U _ZN5ImGui14GetDefaultFontEv
                 U _ZN5ImGui14GetFrameHeightEv
                 U _ZN5ImGui14GetItemRectMaxEv
                 U _ZN5ImGui14GetItemRectMinEv
                 U _ZN5ImGui14GetMouseCursorEv
                 U _ZN5ImGui14GetWindowWidthEv
                 U _ZN5ImGui14IsAnyMouseDownEv
                 U _ZN5ImGui14IsMouseClickedEib
                 U _ZN5ImGui14IsMouseClickedEiij
                 U _ZN5ImGui14IsWindowDockedEv
                 U _ZN5ImGui14LogToClipboardEi
                 U _ZN5ImGui14MarkItemEditedEj
                 U _ZN5ImGui14PopTextWrapPosEv
                 U _ZN5ImGui14PushFocusScopeEj
                 U _ZN5ImGui14PushOverrideIDEj
                 U _ZN5ImGui14PushStyleColorEiRK6ImVec4
                 U _ZN5ImGui14PushStyleColorEij
                 U _ZN5ImGui14ScrollToRectExEP11ImGuiWindowRK6ImRecti
                 U _ZN5ImGui14SetColumnWidthEif
                 U _ZN5ImGui14SetCurrentFontEP6ImFontff
                 U _ZN5ImGui14SetMouseCursorEi
                 U _ZN5ImGui14SetScrollHereXEf
                 U _ZN5ImGui14SetScrollHereYEf
                 U _ZN5ImGui14SetWindowFocusEPKc
                 U _ZN5ImGui14SetWindowFocusEv
                 U _ZN5ImGui14ShowDemoWindowEPb
                 U _ZN5ImGui14SliderBehaviorERK6ImRectjiPvPKvS5_PKciPS0_
                 U _ZN5ImGui14TabBarCloseTabEP11ImGuiTabBarP12ImGuiTabItem
                 U _ZN5ImGui14TabBarFindByIDEj
                 U _ZN5ImGui14TabItemSpacingEPKcif
                 U _ZN5ImGui14TableBeginCellEP10ImGuiTablei
                 U _ZN5ImGui15BeginComboPopupEjRK6ImRecti
                 U _ZN5ImGui15BeginPopupModalEPKcPbi
                 U _ZN5ImGui15DataTypeApplyOpEiiPvPKvS2_
                 U _ZN5ImGui15DataTypeCompareEiPKvS1_
                 U _ZN5ImGui15DataTypeGetInfoEi
                 U _ZN5ImGui15DebugHookIdInfoEjiPKvS1_
                 U _ZN5ImGui15DebugLocateItemEj
                 U _ZN5ImGui15DebugNodeTabBarEP11ImGuiTabBarPKc
                 U _ZN5ImGui15DebugNodeWindowEP11ImGuiWindowPKc
                 U _ZN5ImGui15DragFloatRange2EPKcPfS2_fffS1_S1_i
                 U _ZN5ImGui15EndComboPreviewEv
                 U _ZN5ImGui15EndErrorTooltipEv
                 U _ZN5ImGui15GetColumnOffsetEi
                 U _ZN5ImGui15GetColumnsCountEv
                 U _ZN5ImGui15GetItemRectSizeEv
                 U _ZN5ImGui15GetKeyChordNameEi
                 U _ZN5ImGui15GetMainViewportEv
                 U _ZN5ImGui15GetStateStorageEv
                 U _ZN5ImGui15GetStyleVarInfoEi
                 U _ZN5ImGui15GetWindowDockIDEv
                 U _ZN5ImGui15GetWindowHeightEv
                 U _ZN5ImGui15InvisibleButtonEPKcRK6ImVec2i
                 U _ZN5ImGui15IsAnyItemActiveEv
                 U _ZN5ImGui15IsItemActivatedEv
                 U _ZN5ImGui15IsMouseDraggingEif
                 U _ZN5ImGui15IsMousePosValidEPK6ImVec2
                 U _ZN5ImGui15IsMouseReleasedEi
                 U _ZN5ImGui15IsMouseReleasedEij
                 U _ZN5ImGui15IsWindowChildOfEP11ImGuiWindowS1_bb
                 U _ZN5ImGui15IsWindowFocusedEi
                 U _ZN5ImGui15IsWindowHoveredEi
                 U _ZN5ImGui15LogRenderedTextEPK6ImVec2PKcS4_
                 U _ZN5ImGui15PopPasswordFontEv
                 U _ZN5ImGui15PushTextWrapPosEf
                 U _ZN5ImGui15RenderCheckMarkEP10ImDrawList6ImVec2jf
                 U _ZN5ImGui15RenderNavCursorERK6ImRectji
                 U _ZN5ImGui15SeparatorTextExEjPKcS1_f
                 U _ZN5ImGui15SetColumnOffsetEif
                 U _ZN5ImGui15SetItemKeyOwnerE8ImGuiKey
                 U _ZN5ImGui15SetItemKeyOwnerE8ImGuiKeyi
                 U _ZN5ImGui15SetItemTooltipVEPKcP13__va_list_tag
                 U _ZN5ImGui15SetLastItemDataEjiiRK6ImRect
                 U _ZN5ImGui15SetNextItemOpenEbi
                 U _ZN5ImGui15SetStateStorageEP12ImGuiStorage
                 U _ZN5ImGui15ShowAboutWindowEPb
                 U _ZN5ImGui15ShowStyleEditorEP10ImGuiStyle
                 U _ZN5ImGui15StyleColorsDarkEP10ImGuiStyle
                 U _ZN5ImGui15TabBarRemoveTabEP11ImGuiTabBarj
                 U _ZN5ImGui15TabItemCalcSizeEP11ImGuiWindow
                 U _ZN5ImGui15TabItemCalcSizeEPKcb
                 U _ZN5ImGui15TableHeadersRowEv
                 U _ZN5ImGui15TableNextColumnEv
                 U _ZN5ImGui15TableSetBgColorEiji
                 U _ZN5ImGui15TempInputScalarERK6ImRectjPKciPvS4_PKvS7_
                 U _ZN5ImGui15TextLinkOpenURLEPKcS1_
                 U _ZN5ImGui15TextUnformattedEPKcS1_
                 U _ZN5ImGui15TreeNodeGetOpenEj
                 U _ZN5ImGui15TreeNodeSetOpenEjb
                 U _ZN5ImGui16ActivateItemByIDEj
                 U _ZN5ImGui16BeginItemTooltipEv
                 U _ZN5ImGui16BeginMainMenuBarEv
                 U _ZN5ImGui16BeginMultiSelectEiii
                 U _ZN5ImGui16BeginPopupMenuExEjPKci
                 U _ZN5ImGui16CallContextHooksEP12ImGuiContext20ImGuiContextHookType
                 U _ZN5ImGui16ClearIniSettingsEv
                 U _ZN5ImGui16CollapsingHeaderEPKcPbi
                 U _ZN5ImGui16CollapsingHeaderEPKci
                 U _ZN5ImGui16DebugBreakButtonEPKcS1_
                 U _ZN5ImGui16DebugNodeColumnsEP15ImGuiOldColumns
                 U _ZN5ImGui16DebugNodeStorageEP12ImGuiStoragePKc
                 U _ZN5ImGui16DebugNodeTextureEP13ImTextureDataiPK15ImFontAtlasRect
                 U _ZN5ImGui16FindViewportByIDEj
                 U _ZN5ImGui16FindWindowByNameEPKc
                 U _ZN5ImGui16GetClipboardTextEv
                 U _ZN5ImGui16IsAnyItemFocusedEv
                 U _ZN5ImGui16IsAnyItemHoveredEv
                 U _ZN5ImGui16IsDragDropActiveEv
                 U _ZN5ImGui16PushPasswordFontEv
                 U _ZN5ImGui16SetClipboardTextEPKc
                 U _ZN5ImGui16SetNavFocusScopeEj
                 U _ZN5ImGui16SetNextItemWidthEf
                 U _ZN5ImGui16SetNextWindowPosERK6ImVec2iS2_
                 U _ZN5ImGui16SetTabItemClosedEPKc
                 U _ZN5ImGui16ShowFontSelectorEPKc
                 U _ZN5ImGui16SplitterBehaviorERK6ImRectj9ImGuiAxisPfS4_ffffj
                 U _ZN5ImGui16StyleColorsLightEP10ImGuiStyle
                 U _ZN5ImGui16TabBarGetTabNameEP11ImGuiTabBarP12ImGuiTabItem
                 U _ZN5ImGui16TabBarQueueFocusEP11ImGuiTabBarP12ImGuiTabItem
                 U _ZN5ImGui16TabBarQueueFocusEP11ImGuiTabBarPKc
                 U _ZN5ImGui16TableDrawBordersEP10ImGuiTable
                 U _ZN5ImGui16TableGetRowIndexEv
                 U _ZN5ImGui16TableSetupColumnEPKcifj
                 U _ZN5ImGui16TeleportMousePosERK6ImVec2
                 U _ZN5ImGui16TreeNodeBehaviorEjiPKcS1_
                 U _ZN5ImGui17BeginComboPreviewEv
                 U _ZN5ImGui17BeginErrorTooltipEv
                 U _ZN5ImGui17CloseCurrentPopupEv
                 U _ZN5ImGui17ClosePopupToLevelEib
                 U _ZN5ImGui17DebugDrawItemRectEj
                 U _ZN5ImGui17DebugNodeDockNodeEP13ImGuiDockNodePKc
                 U _ZN5ImGui17DebugNodeDrawListEP11ImGuiWindowP14ImGuiViewportPPK10ImDrawListPKc
                 U _ZN5ImGui17DebugNodeViewportEP14ImGuiViewportP
                 U _ZN5ImGui17DebugTextEncodingEPKc
                 U _ZN5ImGui17DockBuilderFinishEj
                 U _ZN5ImGui17EndDragDropSourceEv
                 U _ZN5ImGui17EndDragDropTargetEv
                 U _ZN5ImGui17FindBlockingModalEP11ImGuiWindow
                 U _ZN5ImGui17GetCurrentContextEv
                 U _ZN5ImGui17GetCursorStartPosEv
                 U _ZN5ImGui17GetKeyMagnitude2dE8ImGuiKeyS0_S0_S0_
                 U _ZN5ImGui17GetMouseDragDeltaEif
                 U _ZN5ImGui17GetStyleColorNameEi
                 U _ZN5ImGui17GetStyleColorVec4Ei
                 U _ZN5ImGui17GetTextLineHeightEv
                 U _ZN5ImGui17GetWindowDpiScaleEv
                 U _ZN5ImGui17GetWindowDrawListEv
                 U _ZN5ImGui17GetWindowViewportEv
                 U _ZN5ImGui17InputTextWithHintEPKcS1_PcmiPFiP26ImGuiInputTextCallbackDataEPv
                 U _ZN5ImGui17IsItemDeactivatedEv
                 U _ZN5ImGui17IsItemToggledOpenEv
                 U _ZN5ImGui17IsKeyChordPressedEi
                 U _ZN5ImGui17IsKeyChordPressedEiij
                 U _ZN5ImGui17IsWindowAppearingEv
                 U _ZN5ImGui17IsWindowCollapsedEv
                 U _ZN5ImGui17RegisterFontAtlasEP11ImFontAtlas
                 U _ZN5ImGui17RemoveContextHookEP12ImGuiContextj
                 U _ZN5ImGui17RenderFrameBorderE6ImVec2S0_f
                 U _ZN5ImGui17RenderMouseCursorE6ImVec2fijjj
                 U _ZN5ImGui17RenderTextClippedERK6ImVec2S2_PKcS4_PS1_S2_PK6ImRect
                 U _ZN5ImGui17RenderTextWrappedE6ImVec2PKcS2_f
                 U _ZN5ImGui17SetCurrentContextEP12ImGuiContext
                 U _ZN5ImGui17SetNextItemRefValEiPv
                 U _ZN5ImGui17SetNextWindowSizeERK6ImVec2i
                 U _ZN5ImGui17SetScrollFromPosXEP11ImGuiWindowff
                 U _ZN5ImGui17SetScrollFromPosXEff
                 U _ZN5ImGui17SetScrollFromPosYEP11ImGuiWindowff
                 U _ZN5ImGui17SetScrollFromPosYEff
                 U _ZN5ImGui17SetWindowViewportEP11ImGuiWindowP14ImGuiViewportP
                 U _ZN5ImGui17ShowMetricsWindowEPb
                 U _ZN5ImGui17ShowStyleSelectorEPKc
                 U _ZN5ImGui17TabBarFindTabByIDEP11ImGuiTabBarj
                 U _ZN5ImGui17TabItemBackgroundEP10ImDrawListRK6ImRectij
                 U _ZN5ImGui17TableGetSortSpecsEv
                 U _ZN5ImGui17TableLoadSettingsEP10ImGuiTable
                 U _ZN5ImGui17TableSaveSettingsEP10ImGuiTable
                 U _ZN5ImGui17TableUpdateLayoutEP10ImGuiTable
                 U _ZN5ImGui17UpdateInputEventsEb
                 U _ZN5ImGui18AddSettingsHandlerEPK20ImGuiSettingsHandler
                 U _ZN5ImGui18BeginTooltipHiddenEv
                 U _ZN5ImGui18DebugDrawCursorPosEj
                 U _ZN5ImGui18DebugNodeFontGlyphEP6ImFontPK11ImFontGlyph
                 U _ZN5ImGui18DockBuilderAddNodeEji
                 U _ZN5ImGui18DockBuilderGetNodeEj
                 U _ZN5ImGui18GetCursorScreenPosEv
                 U _ZN5ImGui18GetDragDropPayloadEv
                 U _ZN5ImGui18InputTextMultilineEPKcPcmRK6ImVec2iPFiP26ImGuiInputTextCallbackDataEPv
                 U _ZN5ImGui18PushColumnClipRectEi
                 U _ZN5ImGui18RenderTextEllipsisEP10ImDrawListRK6ImVec2S4_fPKcS6_PS3_
                 U _ZN5ImGui18SetCurrentViewportEP11ImGuiWindowP14ImGuiViewportP
                 U _ZN5ImGui18SetCursorScreenPosERK6ImVec2
                 U _ZN5ImGui18SetDragDropPayloadEPKcPKvmi
                 U _ZN5ImGui18SetNextWindowClassEPK16ImGuiWindowClass
                 U _ZN5ImGui18SetNextWindowFocusEv
                 U _ZN5ImGui18SetShortcutRoutingEiij
                 U _ZN5ImGui18SetWindowCollapsedEP11ImGuiWindowbi
                 U _ZN5ImGui18SetWindowCollapsedEPKcbi
                 U _ZN5ImGui18SetWindowCollapsedEbi
                 U _ZN5ImGui18ShadeVertsLinearUVEP10ImDrawListiiRK6ImVec2S4_S4_S4_b
                 U _ZN5ImGui18ShowDebugLogWindowEPb
                 U _ZN5ImGui18StyleColorsClassicEP10ImGuiStyle
                 U _ZN5ImGui18TabBarQueueReorderEP11ImGuiTabBarP12ImGuiTabItemi
                 U _ZN5ImGui18TableGetCellBgRectEPK10ImGuiTablei
                 U _ZN5ImGui18TableGetColumnNameEPK10ImGuiTablei
                 U _ZN5ImGui18TableGetColumnNameEi
                 U _ZN5ImGui18TableGetHoveredRowEv
                 U _ZN5ImGui18TableResetSettingsEP10ImGuiTable
                 U _ZN5ImGui18TableUpdateBordersEP10ImGuiTable
                 U _ZN5ImGui18TreePushOverrideIDEj
                 U _ZN5ImGui19BeginDragDropSourceEi
                 U _ZN5ImGui19BeginDragDropTargetEv
                 U _ZN5ImGui19CalcWrapWidthForPosERK6ImVec2f
                 U _ZN5ImGui19ClearWindowSettingsEPKc
                 U _ZN5ImGui19DebugBreakClearDataEv
                 U _ZN5ImGui19DockBuilderCopyNodeEjjP8ImVectorIjE
                 U _ZN5ImGui19DockContextEndFrameEP12ImGuiContext
                 U _ZN5ImGui19DockContextShutdownEP12ImGuiContext
                 U _ZN5ImGui19FindHoveredWindowExERK6ImVec2bPP11ImGuiWindowS5_
                 U _ZN5ImGui19FindOrCreateColumnsEP11ImGuiWindowj
                 U _ZN5ImGui19FindRenderedTextEndEPKcS1_
                 U _ZN5ImGui19FindSettingsHandlerEPKc
                 U _ZN5ImGui19GetKeyPressedAmountE8ImGuiKeyff
                 U _ZN5ImGui19IsMouseHoveringRectERK6ImVec2S2_b
                 U _ZN5ImGui19RegisterUserTextureEP13ImTextureData
                 U _ZN5ImGui19RenderArrowDockMenuEP10ImDrawList6ImVec2fj
                 U _ZN5ImGui19RenderTextClippedExEP10ImDrawListRK6ImVec2S4_PKcS6_PS3_S4_PK6ImRect
                 U _ZN5ImGui19ResetMouseDragDeltaEi
                 U _ZN5ImGui19SetColorEditOptionsEi
                 U _ZN5ImGui19SetItemDefaultFocusEv
                 U _ZN5ImGui19SetNavCursorVisibleEb
                 U _ZN5ImGui19SetNextItemShortcutEii
                 U _ZN5ImGui19SetNextWindowDockIDEji
                 U _ZN5ImGui19SetNextWindowScrollERK6ImVec2
                 U _ZN5ImGui19TabBarGetCurrentTabEP11ImGuiTabBar
                 U _ZN5ImGui19TableGetColumnCountEv
                 U _ZN5ImGui19TableGetColumnFlagsEi
                 U _ZN5ImGui19TableGetColumnIndexEv
                 U _ZN5ImGui19TableSetColumnIndexEi
                 U _ZN5ImGui19TableSetColumnWidthEif
                 U _ZN5ImGui19TableSettingsCreateEji
                 U _ZN5ImGui19TableSortSpecsBuildEP10ImGuiTable
                 U _ZN5ImGui19TestShortcutRoutingEij
                 U _ZN5ImGui19UnregisterFontAtlasEP11ImFontAtlas
                 U _ZN5ImGui20BeginViewportSideBarEPKcP13ImGuiViewport8ImGuiDirfi
                 U _ZN5ImGui20ColorConvertHSVtoRGBEfffRfS0_S0_
                 U _ZN5ImGui20ColorConvertRGBtoHSVEfffRfS0_S0_
                 U _ZN5ImGui20DataTypeFormatStringEPciiPKvPKc
                 U _ZN5ImGui20DebugDrawLineExtentsEj
                 U _ZN5ImGui20DebugFlashStyleColorEi
                 U _ZN5ImGui20DebugNodeWindowsListEP8ImVectorIP11ImGuiWindowEPKc
                 U _ZN5ImGui20DebugStartItemPickerEv
                 U _ZN5ImGui20DockBuilderSplitNodeEj8ImGuiDirfPjS1_
                 U _ZN5ImGui20DockContextGenNodeIDEP12ImGuiContext
                 U _ZN5ImGui20DockContextQueueDockEP12ImGuiContextP11ImGuiWindowP13ImGuiDockNodeS3_8ImGuiDirfb
                 U _ZN5ImGui20GetMouseClickedCountEi
                 U _ZN5ImGui20GetTopMostPopupModalEv
                 U _ZN5ImGui20GetWindowScrollbarIDEP11ImGuiWindow9ImGuiAxis
                 U _ZN5ImGui20IsMouseDoubleClickedEi
                 U _ZN5ImGui20IsMouseDoubleClickedEij
                 U _ZN5ImGui20IsWindowNavFocusableEP11ImGuiWindow
                 U _ZN5ImGui20MarkIniSettingsDirtyEP11ImGuiWindow
                 U _ZN5ImGui20MarkIniSettingsDirtyEv
                 U _ZN5ImGui20MultiSelectAddSetAllEP24ImGuiMultiSelectTempDatab
                 U _ZN5ImGui20NavMoveRequestCancelEv
                 U _ZN5ImGui20NavMoveRequestSubmitE8ImGuiDirS0_ii
                 U _ZN5ImGui20OpenPopupOnItemClickEPKci
                 U _ZN5ImGui20PopColumnsBackgroundEv
                 U _ZN5ImGui20PushMultiItemsWidthsEif
                 U _ZN5ImGui20SetKeyboardFocusHereEi
                 U _ZN5ImGui20SetNextItemStorageIDEj
                 U _ZN5ImGui20SetNextWindowBgAlphaEf
                 U _ZN5ImGui20SetWindowHitTestHoleEP11ImGuiWindowRK6ImVec2S4_
                 U _ZN5ImGui20TabBarFindTabByOrderEP11ImGuiTabBari
                 U _ZN5ImGui20TabBarProcessReorderEP11ImGuiTabBar
                 U _ZN5ImGui20TableBeginInitMemoryEP10ImGuiTablei
                 U _ZN5ImGui20TableOpenContextMenuEi
                 U _ZN5ImGui21AcceptDragDropPayloadEPKci
                 U _ZN5ImGui21BeginPopupContextItemEPKci
                 U _ZN5ImGui21BeginPopupContextVoidEPKci
                 U _ZN5ImGui21ClosePopupsOverWindowEP11ImGuiWindowb
                 U _ZN5ImGui21ColorEditOptionsPopupEPKfi
                 U _ZN5ImGui21DataTypeApplyFromTextEPKciPvS1_S2_
                 U _ZN5ImGui21DestroyPlatformWindowEP14ImGuiViewportP
                 U _ZN5ImGui21DockBuilderDockWindowEPKcj
                 U _ZN5ImGui21DockBuilderRemoveNodeEj
                 U _ZN5ImGui21DockBuilderSetNodePosEj6ImVec2
                 U _ZN5ImGui21DockContextClearNodesEP12ImGuiContextjb
                 U _ZN5ImGui21DockContextInitializeEP12ImGuiContext
                 U _ZN5ImGui21DockSpaceOverViewportEjPK13ImGuiViewportiPK16ImGuiWindowClass
                 U _ZN5ImGui21GetAllocatorFunctionsEPPFPvmS0_EPPFvS0_S0_EPS0_
                 U _ZN5ImGui21GetBackgroundDrawListEP13ImGuiViewport
                 U _ZN5ImGui21GetContentRegionAvailEv
                 U _ZN5ImGui21GetDrawListSharedDataEv
                 U _ZN5ImGui21GetForegroundDrawListEP13ImGuiViewport
                 U _ZN5ImGui21MultiSelectItemFooterEjPbS0_
                 U _ZN5ImGui21MultiSelectItemHeaderEjPbPi
                 U _ZN5ImGui21NavHighlightActivatedEj
                 U _ZN5ImGui21NavMoveRequestForwardE8ImGuiDirS0_ii
                 U _ZN5ImGui21PushColumnsBackgroundEv
                 U _ZN5ImGui21RemoveSettingsHandlerEPKc
                 U _ZN5ImGui21RenderArrowPointingAtEP10ImDrawList6ImVec2S2_8ImGuiDirj
                 U _ZN5ImGui21SaveIniSettingsToDiskEPKc
                 U _ZN5ImGui21SetAllocatorFunctionsEPFPvmS0_EPFvS0_S0_ES0_
                 U _ZN5ImGui21SetNextWindowViewportEj
                 U _ZN5ImGui21ShowIDStackToolWindowEPb
                 U _ZN5ImGui21StopMouseMovingWindowEv
                 U _ZN5ImGui21TableAngledHeadersRowEv
                 U _ZN5ImGui21TableGetBoundSettingsEP10ImGuiTable
                 U _ZN5ImGui21TableGetHoveredColumnEv
                 U _ZN5ImGui21TablePopColumnChannelEv
                 U _ZN5ImGui21TableSetColumnEnabledEib
                 U _ZN5ImGui21TableSettingsFindByIDEj
                 U _ZN5ImGui21TypingSelectFindMatchEP24ImGuiTypingSelectRequestiPFPKcPviES4_i
                 U _ZN5ImGui21UnregisterUserTextureEP13ImTextureData
                 U _ZN5ImGui21UpdateCurrentFontSizeEf
                 U _ZN5ImGui21UpdatePlatformWindowsEv
                 U _ZN5ImGui22DebugLocateItemOnHoverEj
                 U _ZN5ImGui22DebugNodeTableSettingsEP18ImGuiTableSettings
                 U _ZN5ImGui22DestroyPlatformWindowsEv
                 U _ZN5ImGui22DockBuilderSetNodeSizeEj6ImVec2
                 U _ZN5ImGui22DockNodeEndAmendTabBarEv
                 U _ZN5ImGui22FindWindowDisplayIndexEP11ImGuiWindow
                 U _ZN5ImGui22FindWindowSettingsByIDEj
                 U _ZN5ImGui22GetFontTexUvWhitePixelEv
                 U _ZN5ImGui22GetShortcutRoutingDataEi
                 U _ZN5ImGui22GetTypematicRepeatRateEiPfS0_
                 U _ZN5ImGui22GetTypingSelectRequestEi
                 U _ZN5ImGui22GetWindowScrollbarRectEP11ImGuiWindow9ImGuiAxis
                 U _ZN5ImGui22IsItemToggledSelectionEv
                 U _ZN5ImGui22MultiSelectAddSetRangeEP24ImGuiMultiSelectTempDatabixx
                 U _ZN5ImGui22RenderRectFilledRangeHEP10ImDrawListRK6ImRectjfff
                 U _ZN5ImGui22ScaleWindowsInViewportEP14ImGuiViewportPf
                 U _ZN5ImGui22SetNextWindowCollapsedEbi
                 U _ZN5ImGui22ShadeVertsTransformPosEP10ImDrawListiiRK6ImVec2ffS4_
                 U _ZN5ImGui22StartMouseMovingWindowEP11ImGuiWindow
                 U _ZN5ImGui22TableGcCompactSettingsEv
                 U _ZN5ImGui22TableGetColumnResizeIDEP10ImGuiTableii
                 U _ZN5ImGui22TableMergeDrawChannelsEP10ImGuiTable
                 U _ZN5ImGui22TablePushColumnChannelEi
                 U _ZN5ImGui22TableSetupDrawChannelsEP10ImGuiTable
                 U _ZN5ImGui22TableSetupScrollFreezeEii
                 U _ZN5ImGui22TableSortSpecsSanitizeEP10ImGuiTable
                 U _ZN5ImGui22TreeNodeUpdateNextOpenEji
                 U _ZN5ImGui23AddDrawListToDrawDataExEP10ImDrawDataP8ImVectorIP10ImDrawListES4_
                 U _ZN5ImGui23AlignTextToFramePaddingEv
                 U _ZN5ImGui23BeginPopupContextWindowEPKci
                 U _ZN5ImGui23BringWindowToFocusFrontEP11ImGuiWindow
                 U _ZN5ImGui23ClosePopupsExceptModalsEv
                 U _ZN5ImGui23ColorConvertFloat4ToU32ERK6ImVec4
                 U _ZN5ImGui23ColorConvertU32ToFloat4Ej
                 U _ZN5ImGui23ColorPickerOptionsPopupEPKfi
                 U _ZN5ImGui23CreateNewWindowSettingsEPKc
                 U _ZN5ImGui23DebugBreakButtonTooltipEbPKc
                 U _ZN5ImGui23DebugNodeInputTextStateEP19ImGuiInputTextState
                 U _ZN5ImGui23DebugNodeWindowSettingsEP19ImGuiWindowSettings
                 U _ZN5ImGui23DockContextFindNodeByIDEP12ImGuiContextj
                 U _ZN5ImGui23DockContextRebuildNodesEP12ImGuiContext
                 U _ZN5ImGui23ErrorRecoveryStoreStateEP23ImGuiErrorRecoveryState
                 U _ZN5ImGui23GetColumnNormFromOffsetEPK15ImGuiOldColumnsf
                 U _ZN5ImGui23GetColumnOffsetFromNormEPK15ImGuiOldColumnsf
                 U _ZN5ImGui23GetWindowResizeBorderIDEP11ImGuiWindow8ImGuiDir
                 U _ZN5ImGui23GetWindowResizeCornerIDEP11ImGuiWindowi
                 U _ZN5ImGui23InputTextDeactivateHookEj
                 U _ZN5ImGui23LoadIniSettingsFromDiskEPKc
                 U _ZN5ImGui23LocalizeRegisterEntriesEPK13ImGuiLocEntryi
                 U _ZN5ImGui23SaveIniSettingsToMemoryEPm
                 U _ZN5ImGui23SetKeyOwnersForKeyChordEiji
                 U _ZN5ImGui23SetNextItemAllowOverlapEv
                 U _ZN5ImGui23TableAngledHeadersRowExEjffPK20ImGuiTableHeaderDatai
                 U _ZN5ImGui23TableBeginApplyRequestsEP10ImGuiTable
                 U _ZN5ImGui23TableCalcMaxColumnWidthEPK10ImGuiTablei
                 U _ZN5ImGui23TableGetColumnWidthAutoEP10ImGuiTableP16ImGuiTableColumn
                 U _ZN5ImGui23TableGetHeaderRowHeightEv
                 U _ZN5ImGui23UpdateWindowSkipRefreshEP11ImGuiWindow
                 U _ZN5ImGui24BringWindowToDisplayBackEP11ImGuiWindow
                 U _ZN5ImGui24DebugNodePlatformMonitorEP20ImGuiPlatformMonitorPKci
                 U _ZN5ImGui24DockBuilderCopyDockSpaceEjjP8ImVectorIPKcE
                 U _ZN5ImGui24DockNodeBeginAmendTabBarEP13ImGuiDockNode
                 U _ZN5ImGui24GetNavTweakPressedAmountE9ImGuiAxis
                 U _ZN5ImGui24IsMouseDragPastThresholdEif
                 U _ZN5ImGui24IsMouseReleasedWithDelayEif
                 U _ZN5ImGui24IsWindowContentHoverableEP11ImGuiWindowi
                 U _ZN5ImGui24LogSetNextTextDecorationEPKcS1_
                 U _ZN5ImGui24RenderRectFilledWithHoleEP10ImDrawListRK6ImRectS4_jf
                 U _ZN5ImGui24SetFontRasterizerDensityEf
                 U _ZN5ImGui24SetNextWindowContentSizeERK6ImVec2
                 U _ZN5ImGui25BeginDragDropTargetCustomERK6ImRectj
                 U _ZN5ImGui25BringWindowToDisplayFrontEP11ImGuiWindow
                 U _ZN5ImGui25CalcClipRectVisibleItemsYERK6ImRectRK6ImVec2fPiS6_
                 U _ZN5ImGui25CalcTypematicRepeatAmountEffff
                 U _ZN5ImGui25CalcWindowNextAutoFitSizeEP11ImGuiWindow
                 U _ZN5ImGui25DebugNodeMultiSelectStateEP21ImGuiMultiSelectState
                 U _ZN5ImGui25FindBestWindowPosForPopupEP11ImGuiWindow
                 U _ZN5ImGui25GetFrameHeightWithSpacingEv
                 U _ZN5ImGui25GetPopupAllowedExtentRectEP11ImGuiWindow
                 U _ZN5ImGui25GetTreeNodeToLabelSpacingEv
                 U _ZN5ImGui25LoadIniSettingsFromMemoryEPKcm
                 U _ZN5ImGui25NavInitRequestApplyResultEv
                 U _ZN5ImGui25NavMoveRequestApplyResultEv
                 U _ZN5ImGui25NavMoveRequestTryWrappingEP11ImGuiWindowi
                 U _ZN5ImGui25TablePopBackgroundChannelEv
                 U _ZN5ImGui25TreeNodeDrawLineToTreePopEPK22ImGuiTreeNodeStackData
                 U _ZN5ImGui26BringWindowToDisplayBehindEP11ImGuiWindowS1_
                 U _ZN5ImGui26DebugNodeTypingSelectStateEP22ImGuiTypingSelectState
                 U _ZN5ImGui26DebugRenderKeyboardPreviewEP10ImDrawList
                 U _ZN5ImGui26DockContextQueueUndockNodeEP12ImGuiContextP13ImGuiDockNode
                 U _ZN5ImGui26FindWindowSettingsByWindowEP11ImGuiWindow
                 U _ZN5ImGui26FocusTopMostWindowUnderOneEP11ImGuiWindowS1_P13ImGuiViewporti
                 U _ZN5ImGui26GetViewportPlatformMonitorEP13ImGuiViewport
                 U _ZN5ImGui26IsItemDeactivatedAfterEditEv
                 U _ZN5ImGui26IsWindowWithinBeginStackOfEP11ImGuiWindowS1_
                 U _ZN5ImGui26RenderDragDropTargetRectExEP10ImDrawListRK6ImRect
                 U _ZN5ImGui26SetNextWindowRefreshPolicyEi
                 U _ZN5ImGui26TabItemLabelAndCloseButtonEP10ImDrawListRK6ImRecti6ImVec2PKcjjbPbS8_
                 U _ZN5ImGui26TableBeginContextMenuPopupEP10ImGuiTable
                 U _ZN5ImGui26TablePushBackgroundChannelEv
                 U _ZN5ImGui26TableSetColumnWidthAutoAllEP10ImGuiTable
                 U _ZN5ImGui26TranslateWindowsInViewportEP14ImGuiViewportPRK6ImVec2S4_S4_S4_
                 U _ZN5ImGui27BeginDockableDragDropSourceEP11ImGuiWindow
                 U _ZN5ImGui27BeginDockableDragDropTargetEP11ImGuiWindow
                 U _ZN5ImGui27BeginDragDropTargetViewportEP13ImGuiViewportPK6ImRect
                 U _ZN5ImGui27EndDisabledOverrideReenableEv
                 U _ZN5ImGui27FindBestWindowPosForPopupExERK6ImVec2S2_P8ImGuiDirRK6ImRectS7_24ImGuiPopupPositionPolicy
                 U _ZN5ImGui27NavClearPreferredPosForAxisE9ImGuiAxis
                 U _ZN5ImGui27TableDrawDefaultContextMenuEP10ImGuiTablei
                 U _ZN5ImGui27TableFixColumnSortDirectionEP10ImGuiTableP16ImGuiTableColumn
                 U _ZN5ImGui27TableSetColumnSortDirectionEi18ImGuiSortDirectionb
                 U _ZN5ImGui27TreeNodeDrawLineToChildNodeERK6ImVec2
                 U _ZN5ImGui28DebugRenderViewportThumbnailEP10ImDrawListP14ImGuiViewportPRK6ImRect
                 U _ZN5ImGui28DockContextProcessUndockNodeEP12ImGuiContextP13ImGuiDockNode
                 U _ZN5ImGui28DockContextQueueUndockWindowEP12ImGuiContextP11ImGuiWindow
                 U _ZN5ImGui28FindViewportByPlatformHandleEPv
                 U _ZN5ImGui28GetTextLineHeightWithSpacingEv
                 U _ZN5ImGui28GetWindowAlwaysWantOwnTabBarEP11ImGuiWindow
                 U _ZN5ImGui28NavMoveRequestButNoResultYetEv
                 U _ZN5ImGui28RenderPlatformWindowsDefaultEPvS0_
                 U _ZN5ImGui28SetNavCursorVisibleAfterMoveEv
                 U _ZN5ImGui28SetNextFrameWantCaptureMouseEb
                 U _ZN5ImGui28SetNextItemSelectionUserDataEx
                 U _ZN5ImGui28SetNextWindowSizeConstraintsERK6ImVec2S2_PFvP21ImGuiSizeCallbackDataEPv
                 U _ZN5ImGui28StartMouseMovingWindowOrNodeEP11ImGuiWindowP13ImGuiDockNodeb
                 U _ZN5ImGui29BeginDisabledOverrideReenableEv
                 U _ZN5ImGui29DockBuilderCopyWindowSettingsEPKcS1_
                 U _ZN5ImGui29GcAwakeTransientWindowBuffersEP11ImGuiWindow
                 U _ZN5ImGui29GcCompactTransientMiscBuffersEv
                 U _ZN5ImGui29TableSetColumnWidthAutoSingleEP10ImGuiTablei
                 U _ZN5ImGui30CalcRoundingFlagsForRectInRectERK6ImRectS2_f
                 U _ZN5ImGui30DebugCheckVersionAndDataLayoutEPKcmmmmmm
                 U _ZN5ImGui30DebugNodeFontGlyphesForSrcMaskEP6ImFontP11ImFontBakedi
                 U _ZN5ImGui30DockContextProcessUndockWindowEP12ImGuiContextP11ImGuiWindowb
                 U _ZN5ImGui30ErrorRecoveryTryToRecoverStateEPK23ImGuiErrorRecoveryState
                 U _ZN5ImGui30GetTopMostAndVisiblePopupModalEv
                 U _ZN5ImGui30IsDragDropPayloadBeingAcceptedEv
                 U _ZN5ImGui30TabBarQueueReorderFromMousePosEP11ImGuiTabBarP12ImGuiTabItem6ImVec2
                 U _ZN5ImGui30TableGcCompactTransientBuffersEP10ImGuiTable
                 U _ZN5ImGui30TableGcCompactTransientBuffersEP18ImGuiTableTempData
                 U _ZN5ImGui30UpdateWindowParentAndRootLinksEP11ImGuiWindowiS1_
                 U _ZN5ImGui31DockBuilderRemoveNodeChildNodesEj
                 U _ZN5ImGui31GcCompactTransientWindowBuffersEP11ImGuiWindow
                 U _ZN5ImGui31RenderDragDropTargetRectForItemERK6ImRect
                 U _ZN5ImGui31SetActiveIdUsingAllKeyboardKeysEv
                 U _ZN5ImGui31SetNextFrameWantCaptureKeyboardEb
                 U _ZN5ImGui31TableGetColumnNextSortDirectionEP16ImGuiTableColumn
                 U _ZN5ImGui31TableSettingsAddSettingsHandlerEv
                 U _ZN5ImGui31UpdateMouseMovingWindowEndFrameEv
                 U _ZN5ImGui31UpdateMouseMovingWindowNewFrameEv
                 U _ZN5ImGui32DockContextCalcDropPosForDockingEP11ImGuiWindowP13ImGuiDockNodeS1_S3_8ImGuiDirbP6ImVec2
                 U _ZN5ImGui32DockContextNewFrameUpdateDockingEP12ImGuiContext
                 U _ZN5ImGui32GetMousePosOnOpeningCurrentPopupEv
                 U _ZN5ImGui32TypingSelectFindBestLeadingMatchEP24ImGuiTypingSelectRequestiPFPKcPviES4_
                 U _ZN5ImGui33DockNodeWindowMenuHandler_DefaultEP12ImGuiContextP13ImGuiDockNodeP11ImGuiTabBar
                 U _ZN5ImGui33NavMoveRequestResolveWithLastItemEP16ImGuiNavItemData
                 U _ZN5ImGui33SetWindowClipRectBeforeSetChannelEP11ImGuiWindowRK6ImRect
                 U _ZN5ImGui33TableGetHeaderAngledMaxLabelWidthEv
                 U _ZN5ImGui33TableUpdateColumnsWeightFromWidthEP10ImGuiTable
                 U _ZN5ImGui34DebugLocateItemResolveWithLastItemEv
                 U _ZN5ImGui34DebugTextUnformattedWithLocateItemEPKcS1_
                 U _ZN5ImGui34DockBuilderRemoveNodeDockedWindowsEjb
                 U _ZN5ImGui34DockContextNewFrameUpdateUndockingEP12ImGuiContext
                 U _ZN5ImGui34UpdateHoveredWindowAndCaptureFlagsERK6ImVec2
                 U _ZN5ImGui35TypingSelectFindNextSingleCharMatchEP24ImGuiTypingSelectRequestiPFPKcPviES4_i
                 U _ZN5ImGui36ErrorRecoveryTryToRecoverWindowStateEPK23ImGuiErrorRecoveryState
                 U _ZN5ImGui36RenderColorRectWithAlphaCheckerboardEP10ImDrawList6ImVec2S2_jfS2_fi
                 U _ZN5ImGui37NavMoveRequestResolveWithPastTreeNodeEP16ImGuiNavItemDataPK22ImGuiTreeNodeStackData
                 U _ZN5ImGui38DebugNodeDrawCmdShowMeshAndBoundingBoxEP10ImDrawListPKS0_PK9ImDrawCmdbb
                 U _ZN5ImGui38DebugNodeWindowsListByBeginStackParentEPP11ImGuiWindowiS1_
                 U _ZN5ImGui38ErrorCheckEndFrameFinalizeErrorTooltipEv
                 U _ZN5ImGui38ShadeVertsLinearColorGradientKeepAlphaEP10ImDrawListii6ImVec2S2_jj
                 U _ZN5ImGui39NavUpdateCurrentWindowIsScrollPushableXEv
                 U _ZN5ImGui3EndEv
                 U _ZN5ImGui42FindHoveredViewportFromPlatformWindowStackERK6ImVec2
                 U _ZN5ImGui42SetWindowHiddenAndSkipItemsForCurrentFrameEP11ImGuiWindow
                 U _ZN5ImGui43FindBottomMostVisibleWindowWithinBeginStackEP11ImGuiWindow
                 U _ZN5ImGui48TabBarFindMostRecentlySelectedTabForActiveWindowEP11ImGuiTabBar
                 U _ZN5ImGui51ErrorCheckUsingSetCursorPosToExtendParentBoundariesEv
                 U _ZN5ImGui5BeginEPKcPbi
                 U _ZN5ImGui5ComboEPKcPiPFS1_PviES3_ii
                 U _ZN5ImGui5ComboEPKcPiPKS1_ii
                 U _ZN5ImGui5ComboEPKcPiS1_i
                 U _ZN5ImGui5DummyERK6ImVec2
                 U _ZN5ImGui5GetIDEPKc
                 U _ZN5ImGui5GetIDEPKcS1_
                 U _ZN5ImGui5GetIDEPKv
                 U _ZN5ImGui5GetIDEi
                 U _ZN5ImGui5GetIOEP12ImGuiContext
                 U _ZN5ImGui5GetIOEv
                 U _ZN5ImGui5ImageE12ImTextureRefRK6ImVec2S3_S3_
                 U _ZN5ImGui5PopIDEv
                 U _ZN5ImGui5TextVEPKcP13__va_list_tag
                 U _ZN5ImGui5ValueEPKcb
                 U _ZN5ImGui5ValueEPKcfS1_
                 U _ZN5ImGui5ValueEPKci
                 U _ZN5ImGui5ValueEPKcj
                 U _ZN5ImGui6BulletEv
                 U _ZN5ImGui6ButtonEPKcRK6ImVec2
                 U _ZN5ImGui6IndentEf
                 U _ZN5ImGui6PlotExE13ImGuiPlotTypePKcPFfPviES3_iiS2_ffRK6ImVec2
                 U _ZN5ImGui6PushIDEPKc
                 U _ZN5ImGui6PushIDEPKcS1_
                 U _ZN5ImGui6PushIDEPKv
                 U _ZN5ImGui6PushIDEi
                 U _ZN5ImGui6RenderEv
                 U _ZN5ImGui6TextExEPKcS1_i
                 U _ZN5ImGui7ColumnsEiPKcb
                 U _ZN5ImGui7DragIntEPKcPifiiS1_i
                 U _ZN5ImGui7EndMenuEv
                 U _ZN5ImGui7GetFontEv
                 U _ZN5ImGui7GetTimeEv
                 U _ZN5ImGui7ItemAddERK6ImRectjPS1_i
                 U _ZN5ImGui7ListBoxEPKcPiPFS1_PviES3_ii
                 U _ZN5ImGui7ListBoxEPKcPiPKS1_ii
                 U _ZN5ImGui7MemFreeEPv
                 U _ZN5ImGui7NewLineEv
                 U _ZN5ImGui7PopFontEv
                 U _ZN5ImGui7SpacingEv
                 U _ZN5ImGui7TreePopEv
                 U _ZN5ImGui8ButtonExEPKcRK6ImVec2i
                 U _ZN5ImGui8CheckboxEPKcPb
                 U _ZN5ImGui8DragInt2EPKcPifiiS1_i
                 U _ZN5ImGui8DragInt3EPKcPifiiS1_i
                 U _ZN5ImGui8DragInt4EPKcPifiiS1_i
                 U _ZN5ImGui8EndChildEv
                 U _ZN5ImGui8EndComboEv
                 U _ZN5ImGui8EndFrameEv
                 U _ZN5ImGui8EndGroupEv
                 U _ZN5ImGui8EndPopupEv
                 U _ZN5ImGui8EndTableEv
                 U _ZN5ImGui8ErrorLogEPKc
                 U _ZN5ImGui8GetStyleEv
                 U _ZN5ImGui8InputIntEPKcPiiii
                 U _ZN5ImGui8ItemSizeERK6ImVec2f
                 U _ZN5ImGui8LogBeginEii
                 U _ZN5ImGui8LogTextVEPKcP13__va_list_tag
                 U _ZN5ImGui8LogToTTYEi
                 U _ZN5ImGui8MemAllocEm
                 U _ZN5ImGui8MenuItemEPKcS1_Pbb
                 U _ZN5ImGui8MenuItemEPKcS1_bb
                 U _ZN5ImGui8NewFrameEv
                 U _ZN5ImGui8PushFontEP6ImFontf
                 U _ZN5ImGui8SameLineEff
                 U _ZN5ImGui8SetNavIDEj13ImGuiNavLayerjRK6ImRect
                 U _ZN5ImGui8ShortcutEii
                 U _ZN5ImGui8ShortcutEiij
                 U _ZN5ImGui8ShutdownEv
                 U _ZN5ImGui8TextLinkEPKc
                 U _ZN5ImGui8TreeNodeEPKc
                 U _ZN5ImGui8TreePushEPKc
                 U _ZN5ImGui8TreePushEPKv
                 U _ZN5ImGui8UnindentEf
                 U _ZN5ImGui9BeginMenuEPKcb
                 U _ZN5ImGui9DebugLogVEPKcP13__va_list_tag
                 U _ZN5ImGui9DockSpaceEjRK6ImVec2iPK16ImGuiWindowClass
                 U _ZN5ImGui9DragFloatEPKcPffffS1_i
                 U _ZN5ImGui9EndTabBarEv
                 U _ZN5ImGui9FocusItemEv
                 U _ZN5ImGui9GetItemIDEv
                 U _ZN5ImGui9InputInt2EPKcPii
                 U _ZN5ImGui9InputInt3EPKcPii
                 U _ZN5ImGui9InputInt4EPKcPii
                 U _ZN5ImGui9InputTextEPKcPcmiPFiP26ImGuiInputTextCallbackDataEPv
                 U _ZN5ImGui9IsKeyDownE8ImGuiKey
                 U _ZN5ImGui9IsKeyDownE8ImGuiKeyj
                 U _ZN5ImGui9LogFinishEv
                 U _ZN5ImGui9LogToFileEiPKc
                 U _ZN5ImGui9OpenPopupEPKci
                 U _ZN5ImGui9OpenPopupEji
                 U _ZN5ImGui9PlotLinesEPKcPFfPviES2_iiS1_ff6ImVec2
                 U _ZN5ImGui9PlotLinesEPKcPKfiiS1_ff6ImVec2i
                 U _ZN5ImGui9ScrollbarE9ImGuiAxis
                 U _ZN5ImGui9SeparatorEv
                 U _ZN5ImGui9SliderIntEPKcPiiiS1_i
                 U _ZN5ImGui9TabItemExEP11ImGuiTabBarPKcPbiP11ImGuiWindow
                 U _ZN5ImGui9TreeNodeVEPKcS1_P13__va_list_tag
                 U _ZN5ImGui9TreeNodeVEPKvPKcP13__va_list_tag
                 U _ZN6ImFont10RenderCharEP10ImDrawListfRK6ImVec2jtPK6ImVec4
                 U _ZN6ImFont10RenderTextEP10ImDrawListfRK6ImVec2jRK6ImVec4PKcS9_fi
                 U _ZN6ImFont12AddRemapCharEtt
                 U _ZN6ImFont12GetFontBakedEff
                 U _ZN6ImFont13CalcTextSizeAEfffPKcS1_PS1_
                 U _ZN6ImFont13IsGlyphInFontEt
                 U _ZN6ImFont15ClearOutputDataEv
                 U _ZN6ImFont18IsGlyphRangeUnusedEjj
                 U _ZN6ImFont20CalcWordWrapPositionEfPKcS1_f
                 U _ZN6ImFontC1Ev
                 U _ZN6ImFontD1Ev
                 U _ZN7ImGuiIO11AddKeyEventE8ImGuiKeyb
                 U _ZN7ImGuiIO13AddFocusEventEb
                 U _ZN7ImGuiIO14ClearInputKeysEv
                 U _ZN7ImGuiIO15ClearInputMouseEv
                 U _ZN7ImGuiIO16AddMousePosEventEff
                 U _ZN7ImGuiIO16ClearEventsQueueEv
                 U _ZN7ImGuiIO17AddInputCharacterEj
                 U _ZN7ImGuiIO17AddKeyAnalogEventE8ImGuiKeybf
                 U _ZN7ImGuiIO18AddMouseWheelEventEff
                 U _ZN7ImGuiIO19AddMouseButtonEventEib
                 U _ZN7ImGuiIO19AddMouseSourceEventE16ImGuiMouseSource
                 U _ZN7ImGuiIO21AddMouseViewportEventEj
                 U _ZN7ImGuiIO21SetAppAcceptingEventsEb
                 U _ZN7ImGuiIO21SetKeyEventNativeDataE8ImGuiKeyiii
                 U _ZN7ImGuiIO22AddInputCharacterUTF16Et
                 U _ZN7ImGuiIO22AddInputCharactersUTF8EPKc
                 U _ZN7ImGuiIOC1Ev
                 U _ZNK10ImDrawList11CloneOutputEv
                 U _ZNK10ImDrawList27_CalcCircleAutoSegmentCountEf
                 U _ZNK11ImFontAtlas13GetCustomRectEiP15ImFontAtlasRect
                 U _ZNK12ImGuiStorage10GetVoidPtrEj
                 U _ZNK12ImGuiStorage6GetIntEji
                 U _ZNK12ImGuiStorage7GetBoolEjb
                 U _ZNK12ImGuiStorage8GetFloatEjf
                 U _ZNK15ImGuiTextFilter10PassFilterEPKcS1_
                 U _ZNK15ImGuiTextFilter14ImGuiTextRange5splitEcP8ImVectorIS0_E
                 U _ZNK19ImGuiInputTextState12GetCursorPosEv
                 U _ZNK19ImGuiInputTextState12HasSelectionEv
                 U _ZNK19ImGuiInputTextState15GetSelectionEndEv
                 U _ZNK19ImGuiInputTextState17GetSelectionStartEv
                 U _ZNK19ImGuiInputTextState19GetPreferredOffsetXEv
                 U _ZNK26ImGuiSelectionBasicStorage8ContainsEj
                 U __assert_fail
                 U __gxx_personality_v0
                 U __stack_chk_fail
0000000000002390 T igAcceptDragDropPayload
0000000000009940 T igActivateItemByID
0000000000009000 T igAddContextHook
0000000000008f20 T igAddDrawListToDrawDataEx
0000000000009110 T igAddSettingsHandler
0000000000000b70 T igAlignTextToFramePadding
00000000000011d0 T igArrowButton
000000000000adf0 T igArrowButtonEx
0000000000000430 T igBegin
000000000000a200 T igBeginBoxSelect
0000000000009600 T igBeginChildEx
0000000000000480 T igBeginChild_ID
0000000000000450 T igBeginChild_Str
000000000000a360 T igBeginColumns
0000000000001380 T igBeginCombo
00000000000097c0 T igBeginComboPopup
00000000000097f0 T igBeginComboPreview
00000000000023c0 T igBeginDisabled
00000000000095a0 T igBeginDisabledOverrideReenable
0000000000009fa0 T igBeginDockableDragDropSource
0000000000009fb0 T igBeginDockableDragDropTarget
0000000000009f90 T igBeginDocked
0000000000002350 T igBeginDragDropSource
0000000000002380 T igBeginDragDropTarget
000000000000a120 T igBeginDragDropTargetCustom
000000000000a150 T igBeginDragDropTargetViewport
000000000000b430 T igBeginErrorTooltip
0000000000000b50 T igBeginGroup
0000000000001e00 T igBeginItemTooltip
0000000000001bc0 T igBeginListBox
0000000000001cb0 T igBeginMainMenuBar
0000000000001cd0 T igBeginMenu
0000000000001c90 T igBeginMenuBar
00000000000097a0 T igBeginMenuEx
0000000000001b80 T igBeginMultiSelect
0000000000001ee0 T igBeginPopup
0000000000001f50 T igBeginPopupContextItem
0000000000001f70 T igBeginPopupContextVoid
0000000000001f60 T igBeginPopupContextWindow
0000000000009630 T igBeginPopupEx
0000000000009640 T igBeginPopupMenuEx
0000000000001ef0 T igBeginPopupModal
0000000000002150 T igBeginTabBar
000000000000a840 T igBeginTabBarEx
0000000000002170 T igBeginTabItem
0000000000001f90 T igBeginTable
000000000000a4d0 T igBeginTableEx
0000000000001d10 T igBeginTooltip
0000000000009770 T igBeginTooltipEx
0000000000009780 T igBeginTooltipHidden
0000000000009790 T igBeginViewportSideBar
0000000000008de0 T igBringWindowToDisplayBack
0000000000008df0 T igBringWindowToDisplayBehind
0000000000008dd0 T igBringWindowToDisplayFront
0000000000008dc0 T igBringWindowToFocusFront
0000000000001250 T igBullet
00000000000010a0 T igBulletText
0000000000001160 T igBulletTextV
0000000000001180 T igButton
000000000000af80 T igButtonBehavior
000000000000add0 T igButtonEx
0000000000009550 T igCalcClipRectVisibleItemsY
00000000000094f0 T igCalcItemSize
0000000000000930 T igCalcItemWidth
000000000000acc0 T igCalcRoundingFlagsForRectInRect
0000000000002680 T igCalcTextSize
0000000000009b80 T igCalcTypematicRepeatAmount
0000000000008bf0 T igCalcWindowNextAutoFitSize
0000000000009510 T igCalcWrapWidthForPos
0000000000009020 T igCallContextHooks
00000000000011e0 T igCheckbox
00000000000011f0 T igCheckboxFlags_IntPtr
000000000000ae80 T igCheckboxFlags_S64Ptr
000000000000ae90 T igCheckboxFlags_U64Ptr
0000000000001200 T igCheckboxFlags_UintPtr
0000000000009340 T igClearActiveID
000000000000a160 T igClearDragDrop
0000000000009100 T igClearIniSettings
0000000000009170 T igClearWindowSettings
000000000000aea0 T igCloseButton
0000000000001f40 T igCloseCurrentPopup
0000000000009660 T igClosePopupToLevel
0000000000009680 T igClosePopupsExceptModals
0000000000009670 T igClosePopupsOverWindow
000000000000aec0 T igCollapseButton
0000000000001b00 T igCollapsingHeader_BoolPtr
0000000000001af0 T igCollapsingHeader_TreeNodeFlags
0000000000001730 T igColorButton
00000000000026c0 T igColorConvertFloat4ToU32
00000000000026f0 T igColorConvertHSVtoRGB
00000000000026e0 T igColorConvertRGBtoHSV
00000000000026a0 T igColorConvertU32ToFloat4
00000000000016f0 T igColorEdit3
0000000000001700 T igColorEdit4
000000000000b2c0 T igColorEditOptionsPopup
0000000000001710 T igColorPicker3
0000000000001720 T igColorPicker4
000000000000b2d0 T igColorPickerOptionsPopup
000000000000b2b0 T igColorTooltip
00000000000020d0 T igColumns
00000000000013c0 T igCombo_FnStrPtr
00000000000013b0 T igCombo_Str
00000000000013a0 T igCombo_Str_arr
0000000000009a70 T igConvertSingleModFlagToKey
00000000000002b0 T igCreateContext
0000000000009140 T igCreateNewWindowSettings
000000000000b100 T igDataTypeApplyFromText
000000000000b0f0 T igDataTypeApplyOp
000000000000b120 T igDataTypeClamp
000000000000b110 T igDataTypeCompare
000000000000b0e0 T igDataTypeFormatString
000000000000b0d0 T igDataTypeGetInfo
000000000000b130 T igDataTypeIsZero
000000000000b450 T igDebugAllocHook
000000000000b4e0 T igDebugBreakButton
000000000000b4f0 T igDebugBreakButtonTooltip
000000000000b4d0 T igDebugBreakClearData
0000000000002990 T igDebugCheckVersionAndDataLayout
000000000000b460 T igDebugDrawCursorPos
000000000000b480 T igDebugDrawItemRect
000000000000b470 T igDebugDrawLineExtents
0000000000002970 T igDebugFlashStyleColor
000000000000b510 T igDebugHookIdInfo
000000000000b4a0 T igDebugLocateItem
000000000000b4b0 T igDebugLocateItemOnHover
000000000000b4c0 T igDebugLocateItemResolveWithLastItem
00000000000029a0 T igDebugLog
0000000000002a60 T igDebugLogV
000000000000b520 T igDebugNodeColumns
000000000000b530 T igDebugNodeDockNode
000000000000b550 T igDebugNodeDrawCmdShowMeshAndBoundingBox
000000000000b540 T igDebugNodeDrawList
000000000000b560 T igDebugNodeFont
000000000000b580 T igDebugNodeFontGlyph
000000000000b570 T igDebugNodeFontGlyphesForSrcMask
000000000000b5e0 T igDebugNodeInputTextState
000000000000b600 T igDebugNodeMultiSelectState
000000000000b660 T igDebugNodePlatformMonitor
000000000000b5a0 T igDebugNodeStorage
000000000000b5b0 T igDebugNodeTabBar
000000000000b5c0 T igDebugNodeTable
000000000000b5d0 T igDebugNodeTableSettings
000000000000b590 T igDebugNodeTexture
000000000000b5f0 T igDebugNodeTypingSelectState
000000000000b650 T igDebugNodeViewport
000000000000b610 T igDebugNodeWindow
000000000000b620 T igDebugNodeWindowSettings
000000000000b630 T igDebugNodeWindowsList
000000000000b640 T igDebugNodeWindowsListByBeginStackParent
000000000000b670 T igDebugRenderKeyboardPreview
000000000000b680 T igDebugRenderViewportThumbnail
0000000000002980 T igDebugStartItemPicker
0000000000002960 T igDebugTextEncoding
000000000000b490 T igDebugTextUnformattedWithLocateItem
00000000000002c0 T igDestroyContext
0000000000009080 T igDestroyPlatformWindow
0000000000002ad0 T igDestroyPlatformWindows
000000000000a020 T igDockBuilderAddNode
000000000000a090 T igDockBuilderCopyDockSpace
000000000000a0a0 T igDockBuilderCopyNode
000000000000a0b0 T igDockBuilderCopyWindowSettings
0000000000009fd0 T igDockBuilderDockWindow
000000000000a0c0 T igDockBuilderFinish
0000000000009ff0 T igDockBuilderGetCentralNode
0000000000009fe0 T igDockBuilderGetNode
000000000000a030 T igDockBuilderRemoveNode
000000000000a050 T igDockBuilderRemoveNodeChildNodes
000000000000a040 T igDockBuilderRemoveNodeDockedWindows
000000000000a060 T igDockBuilderSetNodePos
000000000000a070 T igDockBuilderSetNodeSize
000000000000a080 T igDockBuilderSplitNode
0000000000009e80 T igDockContextCalcDropPosForDocking
0000000000009dd0 T igDockContextClearNodes
0000000000009e10 T igDockContextEndFrame
0000000000009e90 T igDockContextFindNodeByID
0000000000009e20 T igDockContextGenNodeID
0000000000009db0 T igDockContextInitialize
0000000000009e00 T igDockContextNewFrameUpdateDocking
0000000000009df0 T igDockContextNewFrameUpdateUndocking
0000000000009e70 T igDockContextProcessUndockNode
0000000000009e60 T igDockContextProcessUndockWindow
0000000000009e30 T igDockContextQueueDock
0000000000009e50 T igDockContextQueueUndockNode
0000000000009e40 T igDockContextQueueUndockWindow
0000000000009de0 T igDockContextRebuildNodes
0000000000009dc0 T igDockContextShutdown
0000000000009eb0 T igDockNodeBeginAmendTabBar
0000000000009ec0 T igDockNodeEndAmendTabBar
0000000000009f20 T igDockNodeGetDepth
0000000000009ed0 T igDockNodeGetRootNode
0000000000009f40 T igDockNodeGetWindowMenuButtonId
0000000000009ef0 T igDockNodeIsInHierarchyOf
0000000000009ea0 T igDockNodeWindowMenuHandler_Default
00000000000021b0 T igDockSpace
00000000000021e0 T igDockSpaceOverViewport
000000000000afb0 T igDragBehavior
00000000000013d0 T igDragFloat
00000000000013e0 T igDragFloat2
00000000000013f0 T igDragFloat3
0000000000001400 T igDragFloat4
0000000000001410 T igDragFloatRange2
0000000000001420 T igDragInt
0000000000001430 T igDragInt2
0000000000001440 T igDragInt3
0000000000001450 T igDragInt4
0000000000001460 T igDragIntRange2
0000000000001470 T igDragScalar
0000000000001480 T igDragScalarN
0000000000000b10 T igDummy
0000000000000440 T igEnd
000000000000a230 T igEndBoxSelect
00000000000004b0 T igEndChild
000000000000a370 T igEndColumns
0000000000001390 T igEndCombo
0000000000009800 T igEndComboPreview
00000000000023d0 T igEndDisabled
00000000000095b0 T igEndDisabledOverrideReenable
0000000000002370 T igEndDragDropSource
00000000000023a0 T igEndDragDropTarget
000000000000b440 T igEndErrorTooltip
0000000000000330 T igEndFrame
0000000000000b60 T igEndGroup
0000000000001be0 T igEndListBox
0000000000001cc0 T igEndMainMenuBar
0000000000001ce0 T igEndMenu
0000000000001ca0 T igEndMenuBar
0000000000001b90 T igEndMultiSelect
0000000000001f00 T igEndPopup
0000000000002160 T igEndTabBar
0000000000002180 T igEndTabItem
0000000000001fb0 T igEndTable
0000000000001d20 T igEndTooltip
000000000000b420 T igErrorCheckEndFrameFinalizeErrorTooltip
000000000000b410 T igErrorCheckUsingSetCursorPosToExtendParentBoundaries
000000000000b3d0 T igErrorLog
000000000000b3e0 T igErrorRecoveryStoreState
000000000000b3f0 T igErrorRecoveryTryToRecoverState
000000000000b400 T igErrorRecoveryTryToRecoverWindowState
00000000000096f0 T igFindBestWindowPosForPopup
0000000000009710 T igFindBestWindowPosForPopupEx
00000000000096e0 T igFindBlockingModal
0000000000008e10 T igFindBottomMostVisibleWindowWithinBeginStack
00000000000090c0 T igFindHoveredViewportFromPlatformWindowStack
0000000000008f80 T igFindHoveredWindowEx
000000000000a3c0 T igFindOrCreateColumns
000000000000abe0 T igFindRenderedTextEnd
0000000000009130 T igFindSettingsHandler
0000000000002ae0 T igFindViewportByID
0000000000002af0 T igFindViewportByPlatformHandle
0000000000008bb0 T igFindWindowByID
0000000000008bc0 T igFindWindowByName
0000000000008e00 T igFindWindowDisplayIndex
0000000000009150 T igFindWindowSettingsByID
0000000000009160 T igFindWindowSettingsByWindow
0000000000009a60 T igFixupKeyChord
0000000000009930 T igFocusItem
0000000000008db0 T igFocusTopMostWindowUnderOne
0000000000008da0 T igFocusWindow
000000000000bcc0 T igGET_FLT_MAX
000000000000bcd0 T igGET_FLT_MIN
000000000000b3c0 T igGcAwakeTransientWindowBuffers
000000000000b3a0 T igGcCompactTransientMiscBuffers
000000000000b3b0 T igGcCompactTransientWindowBuffers
00000000000092e0 T igGetActiveID
0000000000002a80 T igGetAllocatorFunctions
00000000000025b0 T igGetBackgroundDrawList
000000000000a2a0 T igGetBoxSelectState
0000000000002900 T igGetClipboardText
0000000000000980 T igGetColorU32_Col
00000000000009b0 T igGetColorU32_U32
0000000000000990 T igGetColorU32_Vec4
00000000000020f0 T igGetColumnIndex
000000000000a3e0 T igGetColumnNormFromOffset
0000000000002120 T igGetColumnOffset
000000000000a3d0 T igGetColumnOffsetFromNorm
0000000000002100 T igGetColumnWidth
0000000000002140 T igGetColumnsCount
000000000000a3b0 T igGetColumnsID
0000000000000a10 T igGetContentRegionAvail
00000000000002d0 T igGetCurrentContext
000000000000a0f0 T igGetCurrentFocusScope
000000000000a800 T igGetCurrentTabBar
000000000000a4a0 T igGetCurrentTable
0000000000008b90 T igGetCurrentWindow
0000000000008b70 T igGetCurrentWindowRead
0000000000000a30 T igGetCursorPos
0000000000000a50 T igGetCursorPosX
0000000000000a60 T igGetCursorPosY
00000000000009d0 T igGetCursorScreenPos
0000000000000ab0 T igGetCursorStartPos
0000000000008ee0 T igGetDefaultFont
00000000000023b0 T igGetDragDropPayload
0000000000000350 T igGetDrawData
0000000000002640 T igGetDrawListSharedData
0000000000009300 T igGetFocusID
0000000000000810 T igGetFont
0000000000000830 T igGetFontBaked
0000000000008ea0 T igGetFontRasterizerDensity
0000000000000820 T igGetFontSize
0000000000000960 T igGetFontTexUvWhitePixel
00000000000025c0 T igGetForegroundDrawList_ViewportPtr
0000000000008f10 T igGetForegroundDrawList_WindowPtr
0000000000002630 T igGetFrameCount
0000000000000ba0 T igGetFrameHeight
0000000000000bb0 T igGetFrameHeightWithSpacing
0000000000009350 T igGetHoveredID
00000000000093b0 T igGetIDWithSeed_Int
00000000000093a0 T igGetIDWithSeed_Str
0000000000000c40 T igGetID_Int
0000000000000c30 T igGetID_Ptr
0000000000000c10 T igGetID_Str
0000000000000c20 T igGetID_StrStr
0000000000008b50 T igGetIO_ContextPtr
00000000000002f0 T igGetIO_Nil
000000000000b230 T igGetInputTextState
00000000000092c0 T igGetItemFlags
0000000000002530 T igGetItemID
0000000000002560 T igGetItemRectMax
0000000000002540 T igGetItemRectMin
0000000000002580 T igGetItemRectSize
00000000000092a0 T igGetItemStatusFlags
0000000000009b00 T igGetKeyChordName
0000000000009ad0 T igGetKeyData_ContextPtr
0000000000009ae0 T igGetKeyData_Key
0000000000009b50 T igGetKeyMagnitude2d
0000000000002750 T igGetKeyName
0000000000009bf0 T igGetKeyOwner
0000000000009c40 T igGetKeyOwnerData
0000000000002740 T igGetKeyPressedAmount
00000000000025a0 T igGetMainViewport
00000000000027f0 T igGetMouseClickedCount
00000000000028d0 T igGetMouseCursor
00000000000028a0 T igGetMouseDragDelta
0000000000002850 T igGetMousePos
0000000000002870 T igGetMousePosOnOpeningCurrentPopup
000000000000a2d0 T igGetMultiSelectState
0000000000009b70 T igGetNavTweakPressedAmount
0000000000008b60 T igGetPlatformIO_ContextPtr
0000000000000300 T igGetPlatformIO_Nil
00000000000096a0 T igGetPopupAllowedExtentRect
0000000000008ec0 T igGetRoundedFontSize
0000000000000790 T igGetScrollMaxX
00000000000007a0 T igGetScrollMaxY
0000000000000750 T igGetScrollX
0000000000000760 T igGetScrollY
0000000000009da0 T igGetShortcutRoutingData
0000000000002670 T igGetStateStorage
0000000000000310 T igGetStyle
0000000000002650 T igGetStyleColorName
00000000000009c0 T igGetStyleColorVec4
0000000000009590 T igGetStyleVarInfo
0000000000000b80 T igGetTextLineHeight
0000000000000b90 T igGetTextLineHeightWithSpacing
0000000000002620 T igGetTime
00000000000096d0 T igGetTopMostAndVisiblePopupModal
00000000000096c0 T igGetTopMostPopupModal
0000000000001ae0 T igGetTreeNodeToLabelSpacing
0000000000009b90 T igGetTypematicRepeatRate
000000000000a1c0 T igGetTypingSelectRequest
00000000000003f0 T igGetVersion
00000000000090b0 T igGetViewportPlatformMonitor
0000000000009f80 T igGetWindowAlwaysWantOwnTabBar
0000000000002210 T igGetWindowDockID
0000000000009f60 T igGetWindowDockNode
0000000000000510 T igGetWindowDpiScale
0000000000000500 T igGetWindowDrawList
0000000000000570 T igGetWindowHeight
0000000000000520 T igGetWindowPos
000000000000af70 T igGetWindowResizeBorderID
000000000000af60 T igGetWindowResizeCornerID
000000000000af50 T igGetWindowScrollbarID
000000000000af30 T igGetWindowScrollbarRect
0000000000000540 T igGetWindowSize
0000000000000580 T igGetWindowViewport
0000000000000560 T igGetWindowWidth
0000000000005990 T igImAbs_Float
0000000000005980 T igImAbs_Int
00000000000059a0 T igImAbs_double
0000000000005410 T igImAlphaBlendColors
0000000000005f90 T igImBezierCubicCalc
0000000000005fe0 T igImBezierCubicClosestPoint
0000000000006040 T igImBezierCubicClosestPointCasteljau
00000000000060a0 T igImBezierQuadraticCalc
0000000000006aa0 T igImBitArrayClearAllBits
0000000000006ae0 T igImBitArrayClearBit
0000000000006a80 T igImBitArrayGetStorageSizeInBytes
0000000000006b00 T igImBitArraySetBit
0000000000006b20 T igImBitArraySetBitRange
0000000000006ac0 T igImBitArrayTestBit
00000000000055a0 T igImCharIsBlankA
00000000000055c0 T igImCharIsBlankW
00000000000055e0 T igImCharIsXdigitA
0000000000005b20 T igImClamp
0000000000005490 T igImCountSetBits
0000000000005e30 T igImDot
0000000000005f70 T igImExponentialMovingAverage
00000000000058f0 T igImFileClose
0000000000005900 T igImFileGetSize
0000000000005930 T igImFileLoadToMemory
00000000000058e0 T igImFileOpen
0000000000005910 T igImFileRead
0000000000005920 T igImFileWrite
0000000000005d10 T igImFloor_Float
0000000000005d50 T igImFloor_Vec2
000000000000bb10 T igImFontAtlasAddDrawListSharedData
000000000000ba50 T igImFontAtlasBakedAdd
000000000000ba70 T igImFontAtlasBakedAddFontGlyph
000000000000ba80 T igImFontAtlasBakedAddFontGlyphAdvancedX
000000000000ba60 T igImFontAtlasBakedDiscard
000000000000ba90 T igImFontAtlasBakedDiscardFontGlyph
000000000000ba40 T igImFontAtlasBakedGetClosestMatch
000000000000ba20 T igImFontAtlasBakedGetId
000000000000ba30 T igImFontAtlasBakedGetOrAdd
000000000000baa0 T igImFontAtlasBakedSetFontGlyphBitmap
000000000000b900 T igImFontAtlasBuildClear
000000000000b8a0 T igImFontAtlasBuildDestroy
000000000000b9b0 T igImFontAtlasBuildDiscardBakes
000000000000b9a0 T igImFontAtlasBuildGetOversampleFactors
000000000000b890 T igImFontAtlasBuildInit
000000000000b990 T igImFontAtlasBuildLegacyPreloadAllGlyphRanges
000000000000b8b0 T igImFontAtlasBuildMain
000000000000b8e0 T igImFontAtlasBuildRenderBitmapFromString
000000000000b8c0 T igImFontAtlasBuildSetupFontLoader
000000000000b980 T igImFontAtlasBuildSetupFontSpecialGlyphs
000000000000b8d0 T igImFontAtlasBuildUpdatePointers
000000000000bbe0 T igImFontAtlasDebugLogTextureRequests
000000000000ba00 T igImFontAtlasFontDestroyOutput
000000000000b9e0 T igImFontAtlasFontDestroySourceData
000000000000ba10 T igImFontAtlasFontDiscardBakes
000000000000b9f0 T igImFontAtlasFontInitOutput
000000000000b9d0 T igImFontAtlasFontSourceAddToFont
000000000000b9c0 T igImFontAtlasFontSourceInit
000000000000b6f0 T igImFontAtlasGetFontLoaderForStbTruetype
000000000000bbf0 T igImFontAtlasGetMouseCursorTexData
000000000000bac0 T igImFontAtlasPackAddRect
000000000000baf0 T igImFontAtlasPackDiscardRect
000000000000bad0 T igImFontAtlasPackGetRect
000000000000bae0 T igImFontAtlasPackGetRectSafe
000000000000bab0 T igImFontAtlasPackInit
000000000000b710 T igImFontAtlasRectId_GetGeneration
000000000000b700 T igImFontAtlasRectId_GetIndex
000000000000b720 T igImFontAtlasRectId_Make
000000000000bb20 T igImFontAtlasRemoveDrawListSharedData
000000000000b910 T igImFontAtlasTextureAdd
000000000000bb50 T igImFontAtlasTextureBlockConvert
000000000000bb90 T igImFontAtlasTextureBlockCopy
000000000000bb80 T igImFontAtlasTextureBlockFill
000000000000bb60 T igImFontAtlasTextureBlockPostProcess
000000000000bb70 T igImFontAtlasTextureBlockPostProcessMultiply
000000000000bba0 T igImFontAtlasTextureBlockQueueUpload
000000000000b950 T igImFontAtlasTextureCompact
000000000000b960 T igImFontAtlasTextureGetSizeEstimate
000000000000b940 T igImFontAtlasTextureGrow
000000000000b920 T igImFontAtlasTextureMakeSpace
000000000000b930 T igImFontAtlasTextureRepack
000000000000bb40 T igImFontAtlasUpdateDrawListsSharedData
000000000000bb30 T igImFontAtlasUpdateDrawListsTextures
000000000000bb00 T igImFontAtlasUpdateNewFrame
0000000000005880 T igImFontCalcTextSizeEx
00000000000058c0 T igImFontCalcWordWrapPositionEx
0000000000005610 T igImFormatString
00000000000056d0 T igImFormatStringToTempBuffer
0000000000005780 T igImFormatStringToTempBufferV
00000000000056c0 T igImFormatStringV
00000000000053c0 T igImHashData
00000000000053e0 T igImHashSkipUncontributingPrefix
00000000000053d0 T igImHashStr
0000000000005c90 T igImInvLength
0000000000005f40 T igImIsFloatAboveGuaranteedIntegerPrecision
0000000000005420 T igImIsPowerOfTwo_Int
0000000000005440 T igImIsPowerOfTwo_U64
0000000000005c30 T igImLengthSqr_Vec2
0000000000005c50 T igImLengthSqr_Vec4
0000000000005b80 T igImLerp_Vec2Float
0000000000005ba0 T igImLerp_Vec2Vec2
0000000000005bc0 T igImLerp_Vec4
00000000000060e0 T igImLineClosestPoint
0000000000005ed0 T igImLinearRemapClamp
0000000000005e90 T igImLinearSweep
0000000000005960 T igImLog_Float
0000000000005970 T igImLog_double
0000000000006e70 T igImLowerBound
0000000000005ac0 T igImMax
00000000000054f0 T igImMemdup
0000000000005a70 T igImMin
0000000000005e20 T igImModPositive
0000000000005f30 T igImMul
00000000000057a0 T igImParseFormatFindEnd
0000000000005790 T igImParseFormatFindStart
00000000000057e0 T igImParseFormatPrecision
00000000000057c0 T igImParseFormatSanitizeForPrinting
00000000000057d0 T igImParseFormatSanitizeForScanning
00000000000057b0 T igImParseFormatTrimDecorations
0000000000005940 T igImPow_Float
0000000000005950 T igImPow_double
00000000000053f0 T igImQsort
0000000000005e60 T igImRotate
0000000000005e00 T igImRound64
0000000000005a10 T igImRsqrt_Float
0000000000005a30 T igImRsqrt_double
0000000000005c00 T igImSaturate
00000000000059b0 T igImSign_Float
00000000000059e0 T igImSign_double
0000000000005550 T igImStrSkipBlank
0000000000005540 T igImStrTrimBlanks
0000000000005570 T igImStrbol
0000000000005510 T igImStrchrRange
00000000000054e0 T igImStrdup
0000000000005500 T igImStrdupcpy
0000000000005520 T igImStreolRange
00000000000054b0 T igImStricmp
0000000000005530 T igImStristr
0000000000005560 T igImStrlenW
00000000000054d0 T igImStrncpy
00000000000054c0 T igImStrnicmp
00000000000058d0 T igImTextCalcWordWrapNextLineStart
0000000000005810 T igImTextCharFromUtf8
00000000000057f0 T igImTextCharToUtf8
0000000000005830 T igImTextCountCharsFromUtf8
0000000000005870 T igImTextCountLines
0000000000005840 T igImTextCountUtf8BytesFromChar
0000000000005850 T igImTextCountUtf8BytesFromStr
0000000000005860 T igImTextFindPreviousUtf8Codepoint
0000000000005820 T igImTextStrFromUtf8
0000000000005800 T igImTextStrToUtf8
000000000000bbb0 T igImTextureDataGetFormatBytesPerPixel
000000000000bbd0 T igImTextureDataGetFormatName
000000000000bbc0 T igImTextureDataGetStatusName
0000000000005580 T igImToUpper
0000000000006200 T igImTriangleArea
00000000000061b0 T igImTriangleBarycentricCoords
0000000000006160 T igImTriangleClosestPoint
0000000000006120 T igImTriangleContainsPoint
0000000000006280 T igImTriangleIsClockwise
0000000000005de0 T igImTrunc64
0000000000005ce0 T igImTrunc_Float
0000000000005d00 T igImTrunc_Vec2
0000000000005460 T igImUpperPowerOfTwo
0000000000001280 T igImage
0000000000001320 T igImageButton
000000000000ae00 T igImageButtonEx
00000000000012c0 T igImageWithBg
0000000000000b30 T igIndent
0000000000008f30 T igInitialize
00000000000016c0 T igInputDouble
0000000000001640 T igInputFloat
0000000000001650 T igInputFloat2
0000000000001660 T igInputFloat3
0000000000001670 T igInputFloat4
0000000000001680 T igInputInt
0000000000001690 T igInputInt2
00000000000016a0 T igInputInt3
00000000000016b0 T igInputInt4
00000000000016d0 T igInputScalar
00000000000016e0 T igInputScalarN
00000000000015f0 T igInputText
000000000000b170 T igInputTextDeactivateHook
000000000000b140 T igInputTextEx
0000000000001600 T igInputTextMultiline
0000000000001630 T igInputTextWithHint
00000000000011b0 T igInvisibleButton
0000000000009bd0 T igIsActiveIdUsingNavDir
0000000000009a20 T igIsAliasKey
0000000000002510 T igIsAnyItemActive
0000000000002520 T igIsAnyItemFocused
0000000000002500 T igIsAnyItemHovered
0000000000002840 T igIsAnyMouseDown
00000000000094a0 T igIsClippedEx
000000000000a110 T igIsDragDropActive
000000000000a170 T igIsDragDropPayloadBeingAccepted
00000000000099e0 T igIsGamepadKey
00000000000024c0 T igIsItemActivated
0000000000002470 T igIsItemActive
000000000000b270 T igIsItemActiveAsInputText
0000000000002490 T igIsItemClicked
00000000000024d0 T igIsItemDeactivated
00000000000024e0 T igIsItemDeactivatedAfterEdit
00000000000024b0 T igIsItemEdited
0000000000002480 T igIsItemFocused
0000000000002460 T igIsItemHovered
00000000000024f0 T igIsItemToggledOpen
0000000000001bb0 T igIsItemToggledSelection
00000000000024a0 T igIsItemVisible
0000000000009d20 T igIsKeyChordPressed_InputFlags
0000000000002730 T igIsKeyChordPressed_Nil
0000000000009cf0 T igIsKeyDown_ID
0000000000002700 T igIsKeyDown_Nil
0000000000002710 T igIsKeyPressed_Bool
0000000000009d00 T igIsKeyPressed_InputFlags
0000000000009d10 T igIsKeyReleased_ID
0000000000002720 T igIsKeyReleased_Nil
00000000000099c0 T igIsKeyboardKey
0000000000009a40 T igIsLRModKey
00000000000099b0 T igIsLegacyKey
00000000000027b0 T igIsMouseClicked_Bool
0000000000009d40 T igIsMouseClicked_InputFlags
0000000000009d60 T igIsMouseDoubleClicked_ID
00000000000027d0 T igIsMouseDoubleClicked_Nil
0000000000009d30 T igIsMouseDown_ID
00000000000027a0 T igIsMouseDown_Nil
0000000000009b40 T igIsMouseDragPastThreshold
0000000000002890 T igIsMouseDragging
0000000000002800 T igIsMouseHoveringRect
0000000000009a00 T igIsMouseKey
0000000000002830 T igIsMousePosValid
00000000000027e0 T igIsMouseReleasedWithDelay
0000000000009d50 T igIsMouseReleased_ID
00000000000027c0 T igIsMouseReleased_Nil
0000000000009950 T igIsNamedKey
0000000000009970 T igIsNamedKeyOrMod
0000000000009690 T igIsPopupOpen_ID
0000000000001f80 T igIsPopupOpen_Str
00000000000025d0 T igIsRectVisible_Nil
00000000000025f0 T igIsRectVisible_Vec2
0000000000008c30 T igIsWindowAbove
00000000000004c0 T igIsWindowAppearing
0000000000008c10 T igIsWindowChildOf
00000000000004d0 T igIsWindowCollapsed
0000000000009490 T igIsWindowContentHoverable
0000000000002220 T igIsWindowDocked
00000000000004e0 T igIsWindowFocused
00000000000004f0 T igIsWindowHovered
0000000000008c40 T igIsWindowNavFocusable
0000000000008c20 T igIsWindowWithinBeginStackOf
0000000000009430 T igItemAdd
0000000000009460 T igItemHoverable
00000000000093e0 T igItemSize_Rect
00000000000093c0 T igItemSize_Vec2
0000000000009370 T igKeepAliveID
0000000000000fd0 T igLabelText
0000000000001090 T igLabelTextV
0000000000001c00 T igListBox_FnStrPtr
0000000000001bf0 T igListBox_Str_arr
0000000000002920 T igLoadIniSettingsFromDisk
0000000000002930 T igLoadIniSettingsFromMemory
0000000000009190 T igLocalizeGetMsg
0000000000009180 T igLocalizeRegisterEntries
00000000000095c0 T igLogBegin
0000000000002270 T igLogButtons
0000000000002260 T igLogFinish
00000000000095e0 T igLogRenderedText
00000000000095f0 T igLogSetNextTextDecoration
0000000000002280 T igLogText
0000000000002340 T igLogTextV
00000000000095d0 T igLogToBuffer
0000000000002250 T igLogToClipboard
0000000000002240 T igLogToFile
0000000000002230 T igLogToTTY
00000000000090e0 T igMarkIniSettingsDirty_Nil
00000000000090f0 T igMarkIniSettingsDirty_WindowPtr
0000000000009380 T igMarkItemEdited
0000000000002a90 T igMemAlloc
0000000000002aa0 T igMemFree
00000000000097b0 T igMenuItemEx
0000000000001cf0 T igMenuItem_Bool
0000000000001d00 T igMenuItem_BoolPtr
0000000000009b10 T igMouseButtonToKey
000000000000a280 T igMultiSelectAddSetAll
000000000000a290 T igMultiSelectAddSetRange
000000000000a270 T igMultiSelectItemFooter
000000000000a260 T igMultiSelectItemHeader
00000000000098c0 T igNavClearPreferredPosForAxis
00000000000098b0 T igNavHighlightActivated
0000000000009820 T igNavInitRequestApplyResult
0000000000009810 T igNavInitWindow
0000000000009890 T igNavMoveRequestApplyResult
0000000000009830 T igNavMoveRequestButNoResultYet
0000000000009880 T igNavMoveRequestCancel
0000000000009850 T igNavMoveRequestForward
0000000000009860 T igNavMoveRequestResolveWithLastItem
0000000000009870 T igNavMoveRequestResolveWithPastTreeNode
0000000000009840 T igNavMoveRequestSubmit
00000000000098a0 T igNavMoveRequestTryWrapping
00000000000098e0 T igNavUpdateCurrentWindowIsScrollPushableX
0000000000000320 T igNewFrame
0000000000000af0 T igNewLine
00000000000020e0 T igNextColumn
0000000000009650 T igOpenPopupEx
0000000000001f30 T igOpenPopupOnItemClick
0000000000001f20 T igOpenPopup_ID
0000000000001f10 T igOpenPopup_Str
000000000000b2e0 T igPlotEx
0000000000001c30 T igPlotHistogram_FloatPtr
0000000000001c40 T igPlotHistogram_FnFloatPtr
0000000000001c10 T igPlotLines_FloatPtr
0000000000001c20 T igPlotLines_FnFloatPtr
0000000000002410 T igPopClipRect
000000000000a3a0 T igPopColumnsBackground
000000000000a0e0 T igPopFocusScope
0000000000000800 T igPopFont
0000000000000c00 T igPopID
00000000000008f0 T igPopItemFlag
0000000000000910 T igPopItemWidth
0000000000008f00 T igPopPasswordFont
0000000000000870 T igPopStyleColor
00000000000008d0 T igPopStyleVar
0000000000000950 T igPopTextWrapPos
0000000000001230 T igProgressBar
00000000000023e0 T igPushClipRect
000000000000a380 T igPushColumnClipRect
000000000000a390 T igPushColumnsBackground
000000000000a0d0 T igPushFocusScope
00000000000007f0 T igPushFont
0000000000000bf0 T igPushID_Int
0000000000000be0 T igPushID_Ptr
0000000000000bc0 T igPushID_Str
0000000000000bd0 T igPushID_StrStr
00000000000008e0 T igPushItemFlag
0000000000000900 T igPushItemWidth
0000000000009530 T igPushMultiItemsWidths
0000000000009390 T igPushOverrideID
0000000000008ef0 T igPushPasswordFont
0000000000000840 T igPushStyleColor_U32
0000000000000850 T igPushStyleColor_Vec4
00000000000008b0 T igPushStyleVarX
00000000000008c0 T igPushStyleVarY
0000000000000880 T igPushStyleVar_Float
0000000000000890 T igPushStyleVar_Vec2
0000000000000940 T igPushTextWrapPos
0000000000001210 T igRadioButton_Bool
0000000000001220 T igRadioButton_IntPtr
0000000000008e50 T igRegisterFontAtlas
0000000000008e30 T igRegisterUserTexture
0000000000009010 T igRemoveContextHook
0000000000009120 T igRemoveSettingsHandler
0000000000000340 T igRender
000000000000ac00 T igRenderArrow
000000000000ac40 T igRenderArrowDockMenu
000000000000ac30 T igRenderArrowPointingAt
000000000000ac10 T igRenderBullet
000000000000ac20 T igRenderCheckMark
000000000000aba0 T igRenderColorRectWithAlphaCheckerboard
000000000000a1a0 T igRenderDragDropTargetRectEx
000000000000a180 T igRenderDragDropTargetRectForItem
000000000000ab80 T igRenderFrame
000000000000ab90 T igRenderFrameBorder
000000000000abf0 T igRenderMouseCursor
000000000000abb0 T igRenderNavCursor
0000000000002ac0 T igRenderPlatformWindowsDefault
000000000000ac50 T igRenderRectFilledRangeH
000000000000ac80 T igRenderRectFilledWithHole
000000000000aa80 T igRenderText
000000000000aaa0 T igRenderTextClipped
000000000000aaf0 T igRenderTextClippedEx
000000000000ab40 T igRenderTextEllipsis
000000000000aa90 T igRenderTextWrapped
00000000000028c0 T igResetMouseDragDelta
0000000000000ae0 T igSameLine
0000000000002940 T igSaveIniSettingsToDisk
0000000000002950 T igSaveIniSettingsToMemory
0000000000009070 T igScaleWindowsInViewport
0000000000009270 T igScrollToBringRectIntoView
0000000000009200 T igScrollToItem
0000000000009210 T igScrollToRect
0000000000009240 T igScrollToRectEx
000000000000aee0 T igScrollbar
000000000000aef0 T igScrollbarEx
0000000000001b30 T igSelectable_Bool
0000000000001b60 T igSelectable_BoolPtr
0000000000000ad0 T igSeparator
000000000000ae60 T igSeparatorEx
0000000000001170 T igSeparatorText
000000000000ae70 T igSeparatorTextEx
0000000000009320 T igSetActiveID
0000000000009bc0 T igSetActiveIdUsingAllKeyboardKeys
0000000000002a70 T igSetAllocatorFunctions
0000000000002910 T igSetClipboardText
0000000000001760 T igSetColorEditOptions
0000000000002130 T igSetColumnOffset
0000000000002110 T igSetColumnWidth
00000000000002e0 T igSetCurrentContext
0000000000008e70 T igSetCurrentFont
00000000000090a0 T igSetCurrentViewport
0000000000000a70 T igSetCursorPos
0000000000000a90 T igSetCursorPosX
0000000000000aa0 T igSetCursorPosY
00000000000009f0 T igSetCursorScreenPos
0000000000002360 T igSetDragDropPayload
0000000000009330 T igSetFocusID
0000000000008e90 T igSetFontRasterizerDensity
0000000000009360 T igSetHoveredID
0000000000002420 T igSetItemDefaultFocus
0000000000009c20 T igSetItemKeyOwner_InputFlags
0000000000002790 T igSetItemKeyOwner_Nil
0000000000001e10 T igSetItemTooltip
0000000000001ed0 T igSetItemTooltipV
0000000000009c00 T igSetKeyOwner
0000000000009c10 T igSetKeyOwnersForKeyChord
0000000000002430 T igSetKeyboardFocusHere
00000000000094d0 T igSetLastItemData
00000000000028e0 T igSetMouseCursor
0000000000002440 T igSetNavCursorVisible
00000000000098d0 T igSetNavCursorVisibleAfterMove
0000000000009920 T igSetNavFocusScope
0000000000009900 T igSetNavID
00000000000098f0 T igSetNavWindow
0000000000002760 T igSetNextFrameWantCaptureKeyboard
00000000000028f0 T igSetNextFrameWantCaptureMouse
0000000000002450 T igSetNextItemAllowOverlap
0000000000001b10 T igSetNextItemOpen
000000000000b260 T igSetNextItemRefVal
0000000000001ba0 T igSetNextItemSelectionUserData
0000000000002780 T igSetNextItemShortcut
0000000000001b20 T igSetNextItemStorageID
0000000000000920 T igSetNextItemWidth
0000000000000670 T igSetNextWindowBgAlpha
0000000000002200 T igSetNextWindowClass
0000000000000630 T igSetNextWindowCollapsed
0000000000000610 T igSetNextWindowContentSize
00000000000021f0 T igSetNextWindowDockID
0000000000000640 T igSetNextWindowFocus
0000000000000590 T igSetNextWindowPos
0000000000008e20 T igSetNextWindowRefreshPolicy
0000000000000650 T igSetNextWindowScroll
00000000000005c0 T igSetNextWindowSize
00000000000005e0 T igSetNextWindowSizeConstraints
0000000000000680 T igSetNextWindowViewport
00000000000007d0 T igSetScrollFromPosX_Float
00000000000091e0 T igSetScrollFromPosX_WindowPtr
00000000000007e0 T igSetScrollFromPosY_Float
00000000000091f0 T igSetScrollFromPosY_WindowPtr
00000000000007b0 T igSetScrollHereX
00000000000007c0 T igSetScrollHereY
0000000000000770 T igSetScrollX_Float
00000000000091c0 T igSetScrollX_WindowPtr
0000000000000780 T igSetScrollY_Float
00000000000091d0 T igSetScrollY_WindowPtr
0000000000009d80 T igSetShortcutRouting
0000000000002660 T igSetStateStorage
00000000000021a0 T igSetTabItemClosed
0000000000001d30 T igSetTooltip
0000000000001df0 T igSetTooltipV
000000000000a340 T igSetWindowClipRectBeforeSetChannel
00000000000006d0 T igSetWindowCollapsed_Bool
0000000000000730 T igSetWindowCollapsed_Str
0000000000008c90 T igSetWindowCollapsed_WindowPtr
0000000000009fc0 T igSetWindowDock
00000000000006e0 T igSetWindowFocus_Nil
0000000000000740 T igSetWindowFocus_Str
0000000000008cd0 T igSetWindowHiddenAndSkipItemsForCurrentFrame
0000000000008ca0 T igSetWindowHitTestHole
0000000000008ce0 T igSetWindowParentWindowForFocusRoute
00000000000006f0 T igSetWindowPos_Str
0000000000000690 T igSetWindowPos_Vec2
0000000000008c50 T igSetWindowPos_WindowPtr
0000000000000710 T igSetWindowSize_Str
00000000000006b0 T igSetWindowSize_Vec2
0000000000008c70 T igSetWindowSize_WindowPtr
0000000000009090 T igSetWindowViewport
000000000000b310 T igShadeVertsLinearColorGradientKeepAlpha
000000000000b320 T igShadeVertsLinearUV
000000000000b370 T igShadeVertsTransformPos
0000000000009d70 T igShortcut_ID
0000000000002770 T igShortcut_Nil
00000000000003a0 T igShowAboutWindow
0000000000000380 T igShowDebugLogWindow
0000000000000360 T igShowDemoWindow
000000000000b500 T igShowFontAtlas
00000000000003d0 T igShowFontSelector
0000000000000390 T igShowIDStackToolWindow
0000000000000370 T igShowMetricsWindow
00000000000003b0 T igShowStyleEditor
00000000000003c0 T igShowStyleSelector
00000000000003e0 T igShowUserGuide
0000000000009540 T igShrinkWidths
0000000000008f40 T igShutdown
00000000000014d0 T igSliderAngle
000000000000afc0 T igSliderBehavior
0000000000001490 T igSliderFloat
00000000000014a0 T igSliderFloat2
00000000000014b0 T igSliderFloat3
00000000000014c0 T igSliderFloat4
00000000000014e0 T igSliderInt
00000000000014f0 T igSliderInt2
0000000000001500 T igSliderInt3
0000000000001510 T igSliderInt4
0000000000001520 T igSliderScalar
0000000000001530 T igSliderScalarN
00000000000011a0 T igSmallButton
0000000000000b00 T igSpacing
000000000000b010 T igSplitterBehavior
0000000000008fb0 T igStartMouseMovingWindow
0000000000008fc0 T igStartMouseMovingWindowOrNode
0000000000008fd0 T igStopMouseMovingWindow
0000000000000420 T igStyleColorsClassic
0000000000000400 T igStyleColorsDark
0000000000000410 T igStyleColorsLight
000000000000a920 T igTabBarAddTab
000000000000a940 T igTabBarCloseTab
000000000000a820 T igTabBarFindByID
000000000000a890 T igTabBarFindMostRecentlySelectedTabForActiveWindow
000000000000a870 T igTabBarFindTabByID
000000000000a880 T igTabBarFindTabByOrder
000000000000a8a0 T igTabBarGetCurrentTab
000000000000a910 T igTabBarGetTabName
000000000000a8b0 T igTabBarGetTabOrder
000000000000a990 T igTabBarProcessReorder
000000000000a960 T igTabBarQueueFocus_Str
000000000000a950 T igTabBarQueueFocus_TabItemPtr
000000000000a970 T igTabBarQueueReorder
000000000000a980 T igTabBarQueueReorderFromMousePos
000000000000a830 T igTabBarRemove
000000000000a930 T igTabBarRemoveTab
000000000000aa00 T igTabItemBackground
0000000000002190 T igTabItemButton
000000000000a9c0 T igTabItemCalcSize_Str
000000000000a9e0 T igTabItemCalcSize_WindowPtr
000000000000a9a0 T igTabItemEx
000000000000aa30 T igTabItemLabelAndCloseButton
000000000000a9b0 T igTabItemSpacing
0000000000002030 T igTableAngledHeadersRow
000000000000a490 T igTableAngledHeadersRowEx
000000000000a500 T igTableBeginApplyRequests
000000000000a6c0 T igTableBeginCell
000000000000a570 T igTableBeginContextMenuPopup
000000000000a4f0 T igTableBeginInitMemory
000000000000a6a0 T igTableBeginRow
000000000000a720 T igTableCalcMaxColumnWidth
000000000000a550 T igTableDrawBorders
000000000000a560 T igTableDrawDefaultContextMenu
000000000000a6d0 T igTableEndCell
000000000000a6b0 T igTableEndRow
000000000000a4c0 T igTableFindByID
000000000000a680 T igTableFixColumnSortDirection
000000000000a780 T igTableGcCompactSettings
000000000000a760 T igTableGcCompactTransientBuffers_TablePtr
000000000000a770 T igTableGcCompactTransientBuffers_TableTempDataPtr
000000000000a7c0 T igTableGetBoundSettings
000000000000a6e0 T igTableGetCellBgRect
0000000000002050 T igTableGetColumnCount
0000000000002090 T igTableGetColumnFlags
0000000000002060 T igTableGetColumnIndex
0000000000002080 T igTableGetColumnName_Int
000000000000a700 T igTableGetColumnName_TablePtr
000000000000a670 T igTableGetColumnNextSortDirection
000000000000a710 T igTableGetColumnResizeID
000000000000a690 T igTableGetColumnWidthAuto
000000000000a440 T igTableGetHeaderAngledMaxLabelWidth
000000000000a430 T igTableGetHeaderRowHeight
00000000000020b0 T igTableGetHoveredColumn
000000000000a420 T igTableGetHoveredRow
000000000000a590 T igTableGetInstanceData
000000000000a5f0 T igTableGetInstanceID
0000000000002070 T igTableGetRowIndex
0000000000002040 T igTableGetSortSpecs
0000000000002010 T igTableHeader
0000000000002020 T igTableHeadersRow
000000000000a790 T igTableLoadSettings
000000000000a580 T igTableMergeDrawChannels
0000000000001fd0 T igTableNextColumn
0000000000001fc0 T igTableNextRow
000000000000a3f0 T igTableOpenContextMenu
000000000000a460 T igTablePopBackgroundChannel
000000000000a480 T igTablePopColumnChannel
000000000000a450 T igTablePushBackgroundChannel
000000000000a470 T igTablePushColumnChannel
000000000000a750 T igTableRemove
000000000000a7b0 T igTableResetSettings
000000000000a7a0 T igTableSaveSettings
00000000000020c0 T igTableSetBgColor
00000000000020a0 T igTableSetColumnEnabled
0000000000001fe0 T igTableSetColumnIndex
000000000000a410 T igTableSetColumnSortDirection
000000000000a400 T igTableSetColumnWidth
000000000000a740 T igTableSetColumnWidthAutoAll
000000000000a730 T igTableSetColumnWidthAutoSingle
000000000000a7d0 T igTableSettingsAddSettingsHandler
000000000000a7e0 T igTableSettingsCreate
000000000000a7f0 T igTableSettingsFindByID
0000000000001ff0 T igTableSetupColumn
000000000000a510 T igTableSetupDrawChannels
0000000000002000 T igTableSetupScrollFreeze
000000000000a660 T igTableSortSpecsBuild
000000000000a650 T igTableSortSpecsSanitize
000000000000a530 T igTableUpdateBorders
000000000000a540 T igTableUpdateColumnsWeightFromWidth
000000000000a520 T igTableUpdateLayout
0000000000009ba0 T igTeleportMousePos
000000000000b200 T igTempInputIsActive
000000000000b1c0 T igTempInputScalar
000000000000b180 T igTempInputText
0000000000009c30 T igTestKeyOwner
0000000000009d90 T igTestShortcutRouting
0000000000000c60 T igText
000000000000ad10 T igTextAligned
000000000000adc0 T igTextAlignedV
0000000000000d30 T igTextColored
0000000000000e00 T igTextColoredV
0000000000000e30 T igTextDisabled
0000000000000ef0 T igTextDisabledV
000000000000ad00 T igTextEx
0000000000001260 T igTextLink
0000000000001270 T igTextLinkOpenURL
0000000000000c50 T igTextUnformatted
0000000000000d20 T igTextV
0000000000000f00 T igTextWrapped
0000000000000fc0 T igTextWrappedV
0000000000009030 T igTranslateWindowsInViewport
000000000000b050 T igTreeNodeBehavior
000000000000b060 T igTreeNodeDrawLineToChildNode
000000000000b080 T igTreeNodeDrawLineToTreePop
0000000000001aa0 T igTreeNodeExV_Ptr
0000000000001a90 T igTreeNodeExV_Str
00000000000019e0 T igTreeNodeEx_Ptr
0000000000001920 T igTreeNodeEx_Str
0000000000001930 T igTreeNodeEx_StrStr
000000000000b0a0 T igTreeNodeGetOpen
000000000000b0b0 T igTreeNodeSetOpen
000000000000b0c0 T igTreeNodeUpdateNextOpen
0000000000001910 T igTreeNodeV_Ptr
0000000000001900 T igTreeNodeV_Str
0000000000001840 T igTreeNode_Ptr
0000000000001770 T igTreeNode_Str
0000000000001780 T igTreeNode_StrStr
0000000000001ad0 T igTreePop
000000000000b090 T igTreePushOverrideID
0000000000001ac0 T igTreePush_Ptr
0000000000001ab0 T igTreePush_Str
000000000000a1f0 T igTypingSelectFindBestLeadingMatch
000000000000a1d0 T igTypingSelectFindMatch
000000000000a1e0 T igTypingSelectFindNextSingleCharMatch
0000000000000b40 T igUnindent
0000000000008e60 T igUnregisterFontAtlas
0000000000008e40 T igUnregisterUserTexture
0000000000008e80 T igUpdateCurrentFontSize
0000000000008f60 T igUpdateHoveredWindowAndCaptureFlags
0000000000008f50 T igUpdateInputEvents
0000000000008ff0 T igUpdateMouseMovingWindowEndFrame
0000000000008fe0 T igUpdateMouseMovingWindowNewFrame
0000000000002ab0 T igUpdatePlatformWindows
0000000000008bd0 T igUpdateWindowParentAndRootLinks
0000000000008be0 T igUpdateWindowSkipRefresh
0000000000001540 T igVSliderFloat
0000000000001570 T igVSliderInt
00000000000015b0 T igVSliderScalar
0000000000001c50 T igValue_Bool
0000000000001c80 T igValue_Float
0000000000001c60 T igValue_Int
0000000000001c70 T igValue_Uint
0000000000008d60 T igWindowPosAbsToRel
0000000000008d80 T igWindowPosRelToAbs
0000000000008cf0 T igWindowRectAbsToRel
0000000000008d30 T igWindowRectRelToAbs
                 U log
                 U logf
                 U memcpy
                 U memset
                 U pow
                 U powf
                 U qsort
                 U sqrt
                 U strcmp

cimgui_impl.cpp.o:

imgui.cpp.o:
000000000000034a r .LC0
0000000000000d07 r .LC10
000000000000015e r .LC100
0000000000000040 r .LC1000
0000000000007770 r .LC1001
00000000000077e0 r .LC1002
0000000000007800 r .LC1003
00000000000000c4 r .LC1005
00000000000000c8 r .LC1007
0000000000007860 r .LC1008
0000000000007898 r .LC1009
0000000000000160 r .LC101
00000000000078d0 r .LC1011
0000000000007900 r .LC1012
0000000000007930 r .LC1013
0000000000007970 r .LC1014
00000000000079a0 r .LC1015
00000000000079d0 r .LC1016
0000000000007a08 r .LC1017
00000000000014bb r .LC1018
0000000000007a30 r .LC1019
0000000000001440 r .LC102
0000000000007a60 r .LC1020
0000000000007a90 r .LC1021
00000000000014d8 r .LC1022
0000000000007ab8 r .LC1023
0000000000007b10 r .LC1024
0000000000007b38 r .LC1025
0000000000007b90 r .LC1026
0000000000007bc8 r .LC1027
0000000000007c80 r .LC1028
0000000000007ca8 r .LC1029
0000000000001470 r .LC103
0000000000007cd8 r .LC1030
0000000000007d40 r .LC1031
0000000000007d80 r .LC1032
0000000000007da8 r .LC1033
00000000000014ef r .LC1034
0000000000007dd0 r .LC1035
0000000000007e00 r .LC1036
0000000000007e38 r .LC1037
0000000000001509 r .LC1038
0000000000007e68 r .LC1039
0000000000001498 r .LC104
0000000000007ea0 r .LC1040
0000000000007ec8 r .LC1041
0000000000007ef8 r .LC1042
0000000000007f68 r .LC1043
0000000000001526 r .LC1044
0000000000007f90 r .LC1045
0000000000007fc8 r .LC1046
0000000000008008 r .LC1047
0000000000001542 r .LC1048
0000000000008030 r .LC1049
000000000000016e r .LC105
0000000000008060 r .LC1050
0000000000008098 r .LC1051
00000000000080b8 r .LC1052
0000000000001558 r .LC1053
0000000000008100 r .LC1054
00000000000081b0 r .LC1055
000000000000156c r .LC1056
0000000000001583 r .LC1057
0000000000008268 r .LC1058
0000000000008290 r .LC1059
00000000000014d0 r .LC106
00000000000082c8 r .LC1060
0000000000001599 r .LC1061
00000000000082f0 r .LC1062
00000000000015b4 r .LC1063
0000000000008320 r .LC1064
00000000000015c7 r .LC1065
00000000000015e3 r .LC1066
00000000000015f7 r .LC1067
0000000000001614 r .LC1068
0000000000008378 r .LC1069
0000000000000187 r .LC107
000000000000162d r .LC1070
0000000000001642 r .LC1071
0000000000001660 r .LC1072
0000000000001672 r .LC1073
000000000000168d r .LC1074
00000000000016a0 r .LC1075
00000000000083a0 r .LC1076
00000000000016bc r .LC1077
00000000000016cc r .LC1078
00000000000016e5 r .LC1079
00000000000014f0 r .LC108
00000000000083d0 r .LC1080
00000000000083f0 r .LC1081
00000000000016fb r .LC1082
0000000000008428 r .LC1083
0000000000001713 r .LC1084
0000000000008450 r .LC1085
0000000000001729 r .LC1086
0000000000008470 r .LC1087
000000000000173f r .LC1088
0000000000001751 r .LC1089
000000000000019e r .LC109
000000000000176c r .LC1090
0000000000008490 r .LC1091
0000000000001784 r .LC1092
00000000000017a2 r .LC1093
00000000000084b8 r .LC1094
0000000000008500 r .LC1095
0000000000008528 r .LC1096
00000000000017b4 r .LC1097
0000000000008578 r .LC1098
00000000000085b0 r .LC1099
0000000000001540 r .LC110
00000000000017cf r .LC1100
00000000000085f0 r .LC1101
0000000000008628 r .LC1102
00000000000017e6 r .LC1103
0000000000008660 r .LC1104
00000000000086a0 r .LC1105
00000000000086c0 r .LC1106
0000000000008700 r .LC1107
00000000000017fd r .LC1108
0000000000001810 r .LC1109
0000000000001590 r .LC111
000000000000182c r .LC1110
000000000000183a r .LC1111
0000000000001851 r .LC1112
000000000000185d r .LC1113
0000000000001864 r .LC1114
0000000000001868 r .LC1115
0000000000001881 r .LC1116
0000000000001884 r .LC1117
000000000000188b r .LC1118
000000000000188d r .LC1119
00000000000001ba r .LC112
0000000000008750 r .LC1120
000000000000188f r .LC1121
0000000000001893 r .LC1122
000000000000189c r .LC1123
00000000000018a6 r .LC1124
00000000000018b0 r .LC1125
00000000000018b9 r .LC1126
00000000000018c6 r .LC1127
00000000000018d9 r .LC1128
00000000000018e7 r .LC1129
00000000000015d8 r .LC113
0000000000001901 r .LC1130
000000000000190b r .LC1131
000000000000191a r .LC1132
000000000000192e r .LC1133
000000000000193c r .LC1134
000000000000194f r .LC1135
0000000000001962 r .LC1136
000000000000196e r .LC1137
000000000000198b r .LC1138
00000000000001d5 r .LC114
0000000000008788 r .LC1140
00000000000087c0 r .LC1141
000000000000199a r .LC1142
00000000000019a5 r .LC1143
00000000000019b0 r .LC1144
00000000000019bc r .LC1145
00000000000019cd r .LC1147
00000000000087e8 r .LC1148
00000000000019db r .LC1149
00000000000001e3 r .LC115
00000000000019f2 r .LC1150
0000000000008820 r .LC1152
0000000000008858 r .LC1153
00000000000088b0 r .LC1154
0000000000008910 r .LC1155
00000000000019fd r .LC1156
0000000000001a11 r .LC1157
0000000000008970 r .LC1158
0000000000001a1d r .LC1159
0000000000001618 r .LC116
0000000000008998 r .LC1160
00000000000089b8 r .LC1161
0000000000001a2c r .LC1162
0000000000001a2e r .LC1163
0000000000001a3d r .LC1164
0000000000001a4c r .LC1165
0000000000008a00 r .LC1166
0000000000008a68 r .LC1167
0000000000008b08 r .LC1168
0000000000008bb0 r .LC1169
00000000000001fd r .LC117
0000000000008c68 r .LC1170
0000000000001a54 r .LC1171
0000000000001a5f r .LC1172
0000000000001a67 r .LC1173
0000000000001a76 r .LC1174
0000000000001a8e r .LC1175
0000000000001a95 r .LC1176
0000000000001a9b r .LC1177
0000000000001ab2 r .LC1178
0000000000001abc r .LC1179
0000000000001648 r .LC118
0000000000008d30 r .LC1180
0000000000001ac6 r .LC1181
0000000000008d78 r .LC1182
0000000000001ae0 r .LC1183
0000000000001aef r .LC1184
0000000000001af6 r .LC1185
0000000000001b02 r .LC1186
0000000000008da8 r .LC1187
0000000000008dd0 r .LC1188
0000000000008df8 r .LC1189
0000000000000211 r .LC119
0000000000001b0f r .LC1190
0000000000008e48 r .LC1191
0000000000008e70 r .LC1192
0000000000001b1c r .LC1193
0000000000008fe0 r .LC1194
0000000000001b22 r .LC1195
0000000000001b38 r .LC1196
0000000000009010 r .LC1197
0000000000009048 r .LC1198
0000000000001b3c r .LC1199
0000000000001678 r .LC120
0000000000001b43 r .LC1200
0000000000009078 r .LC1201
00000000000090a8 r .LC1202
00000000000090d0 r .LC1203
0000000000009128 r .LC1204
0000000000009150 r .LC1205
0000000000001b4c r .LC1206
00000000000091d0 r .LC1207
0000000000001b69 r .LC1209
0000000000000000 r .LC121
0000000000009250 r .LC1210
00000000000000b8 r .LC1211
00000000000000c0 r .LC1212
0000000000001b81 r .LC1213
0000000000001b8e r .LC1214
0000000000001ba7 r .LC1215
0000000000001bc2 r .LC1216
0000000000001bc5 r .LC1217
00000000000092a8 r .LC1218
0000000000009318 r .LC1219
00000000000016b8 r .LC122
0000000000009448 r .LC1220
0000000000001bc9 r .LC1221
0000000000001bce r .LC1222
0000000000001bd3 r .LC1223
0000000000001be0 r .LC1224
0000000000009470 r .LC1225
0000000000001bec r .LC1226
0000000000001bf1 r .LC1227
00000000000000cc r .LC1228
0000000000001bff r .LC1229
0000000000001740 r .LC123
00000000000094b0 r .LC1230
0000000000001c0c r .LC1231
0000000000009518 r .LC1232
0000000000001c23 r .LC1233
0000000000009558 r .LC1234
0000000000001c34 r .LC1235
0000000000009580 r .LC1236
0000000000001c4c r .LC1237
0000000000001c52 r .LC1238
00000000000095b0 r .LC1239
00000000000000e0 r .LC124
0000000000001c6d r .LC1240
0000000000001c7f r .LC1241
0000000000001c89 r .LC1242
0000000000001c9b r .LC1243
0000000000001ca2 r .LC1244
0000000000001caf r .LC1245
00000000000095d0 r .LC1246
0000000000001cb8 r .LC1247
0000000000001cc3 r .LC1248
0000000000001ccb r .LC1249
0000000000000004 r .LC125
0000000000001cd0 r .LC1250
0000000000009610 r .LC1251
0000000000001cda r .LC1252
0000000000009638 r .LC1253
0000000000009668 r .LC1254
0000000000001ce5 r .LC1255
0000000000001cf6 r .LC1256
00000000000000b4 r .LC1257
0000000000001d02 r .LC1258
00000000000096a0 r .LC1259
0000000000000008 r .LC126
00000000000096f0 r .LC1260
0000000000009728 r .LC1261
0000000000009780 r .LC1262
00000000000097b8 r .LC1263
00000000000097f8 r .LC1264
0000000000009830 r .LC1265
0000000000001d0a r .LC1266
0000000000009868 r .LC1267
00000000000098b0 r .LC1268
0000000000001d17 r .LC1269
000000000000000c r .LC127
0000000000001d26 r .LC1270
0000000000001d37 r .LC1271
0000000000001d4c r .LC1272
00000000000098e0 r .LC1273
0000000000001d50 r .LC1274
0000000000001d57 r .LC1275
0000000000001d60 r .LC1276
0000000000001d68 r .LC1277
0000000000001d6e r .LC1278
0000000000001d71 r .LC1279
0000000000000010 r .LC128
0000000000001d75 r .LC1280
0000000000001d7b r .LC1281
0000000000001d85 r .LC1282
0000000000001d8e r .LC1283
0000000000001d9b r .LC1284
0000000000001da1 r .LC1285
0000000000001da6 r .LC1286
0000000000001dba r .LC1287
0000000000001dc2 r .LC1288
0000000000001dce r .LC1289
0000000000000014 r .LC129
0000000000001de1 r .LC1290
0000000000009908 r .LC1291
0000000000001de7 r .LC1293
0000000000001dea r .LC1294
0000000000001dec r .LC1295
0000000000001e05 r .LC1296
0000000000001e0c r .LC1297
0000000000001e0e r .LC1298
0000000000009938 r .LC1299
0000000000000134 r .LC130
0000000000001e15 r .LC1300
0000000000001e2a r .LC1301
00000000000000d0 r .LC1302
0000000000000230 r .LC1303
0000000000001e3c r .LC1304
0000000000001e45 r .LC1305
0000000000001e51 r .LC1306
0000000000001e5c r .LC1307
0000000000001e61 r .LC1308
0000000000001e68 r .LC1309
0000000000000010 r .LC131
0000000000009a80 r .LC1311
0000000000001e6f r .LC1312
0000000000001e73 r .LC1313
0000000000001e82 r .LC1314
0000000000009ab8 r .LC1315
0000000000001e8f r .LC1316
0000000000001ea0 r .LC1317
0000000000001eac r .LC1318
0000000000001eba r .LC1319
0000000000000018 r .LC132
0000000000001ecb r .LC1320
0000000000001ed6 r .LC1321
0000000000001edd r .LC1322
0000000000001ee4 r .LC1323
0000000000001eed r .LC1324
0000000000001efb r .LC1325
0000000000001f04 r .LC1326
0000000000001f0d r .LC1327
0000000000001f16 r .LC1328
00000000000000c8 r .LC1329
0000000000000120 r .LC133
0000000000001f18 r .LC1330
0000000000001f21 r .LC1331
0000000000001f30 r .LC1332
0000000000001f39 r .LC1333
0000000000009af8 r .LC1334
0000000000001f43 r .LC1335
0000000000001f4e r .LC1336
0000000000009b30 r .LC1337
0000000000009b80 r .LC1338
0000000000001f5d r .LC1339
0000000000001768 r .LC134
0000000000009ba0 r .LC1340
0000000000009bd0 r .LC1341
0000000000009c10 r .LC1342
0000000000001f73 r .LC1343
0000000000009c50 r .LC1344
0000000000009c88 r .LC1345
0000000000009cb8 r .LC1346
0000000000009cf0 r .LC1347
0000000000001f8a r .LC1348
0000000000009d30 r .LC1349
00000000000017a8 r .LC135
0000000000001f9e r .LC1350
0000000000001fa9 r .LC1351
0000000000001fbc r .LC1352
0000000000001fc9 r .LC1353
0000000000001fe3 r .LC1354
0000000000001ff0 r .LC1355
0000000000001ff8 r .LC1356
000000000000200a r .LC1357
0000000000002012 r .LC1358
000000000000201a r .LC1359
00000000000000d0 r .LC136
0000000000009d60 r .LC1360
0000000000002021 r .LC1361
000000000000202b r .LC1362
0000000000002031 r .LC1363
0000000000002042 r .LC1364
0000000000002051 r .LC1365
0000000000002066 r .LC1366
0000000000002078 r .LC1367
0000000000002082 r .LC1368
000000000000208b r .LC1369
000000000000001c r .LC137
000000000000209a r .LC1370
0000000000009d88 r .LC1371
00000000000020a7 r .LC1372
0000000000009db0 r .LC1373
0000000000009df0 r .LC1374
0000000000009e40 r .LC1375
0000000000009e90 r .LC1376
00000000000020c3 r .LC1377
00000000000020ce r .LC1378
0000000000009ec8 r .LC1379
00000000000017f8 r .LC138
00000000000020dc r .LC1380
0000000000009f00 r .LC1381
00000000000020f0 r .LC1382
00000000000020f6 r .LC1383
0000000000002102 r .LC1384
000000000000210d r .LC1385
0000000000002121 r .LC1386
000000000000212d r .LC1387
0000000000002138 r .LC1388
0000000000002141 r .LC1389
000000000000022a r .LC139
000000000000214a r .LC1390
0000000000002151 r .LC1391
0000000000002159 r .LC1392
0000000000002167 r .LC1393
0000000000002175 r .LC1394
0000000000009f48 r .LC1395
0000000000009f80 r .LC1396
000000000000217f r .LC1397
0000000000009fa0 r .LC1398
000000000000218e r .LC1399
000000000000022c r .LC140
000000000000219a r .LC1400
0000000000009ff0 r .LC1401
000000000000a018 r .LC1402
000000000000a058 r .LC1403
000000000000a088 r .LC1404
000000000000a100 r .LC1405
000000000000a120 r .LC1406
000000000000a158 r .LC1407
00000000000021b1 r .LC1408
00000000000000d0 r .LC1409
000000000000023b r .LC141
000000000000a1a8 r .LC1410
00000000000021c7 r .LC1411
00000000000021d8 r .LC1412
00000000000021e6 r .LC1413
000000000000a1d0 r .LC1414
00000000000021ea r .LC1415
000000000000a1f8 r .LC1416
0000000000002205 r .LC1417
000000000000a228 r .LC1418
000000000000a260 r .LC1419
0000000000001838 r .LC142
000000000000221a r .LC1420
0000000000002237 r .LC1421
000000000000a298 r .LC1422
0000000000002250 r .LC1423
000000000000a2b8 r .LC1424
000000000000a2e8 r .LC1425
000000000000a310 r .LC1426
000000000000225d r .LC1427
0000000000002274 r .LC1428
0000000000002285 r .LC1429
0000000000000020 r .LC143
0000000000002299 r .LC1430
000000000000a358 r .LC1431
000000000000a390 r .LC1432
000000000000a3b8 r .LC1433
000000000000a3f8 r .LC1434
00000000000022a5 r .LC1435
00000000000022ad r .LC1436
000000000000010c r .LC1437
00000000000022b7 r .LC1438
000000000000a428 r .LC1439
0000000000000054 r .LC144
000000000000a468 r .LC1440
00000000000022ce r .LC1441
00000000000022eb r .LC1442
000000000000a4a8 r .LC1443
000000000000a4d0 r .LC1444
000000000000a500 r .LC1445
000000000000a558 r .LC1446
000000000000a588 r .LC1447
000000000000a5a8 r .LC1448
000000000000a5d0 r .LC1449
0000000000001878 r .LC145
000000000000a600 r .LC1450
000000000000a638 r .LC1451
000000000000a660 r .LC1452
000000000000a6a0 r .LC1453
000000000000a6f0 r .LC1454
0000000000002305 r .LC1455
000000000000a720 r .LC1456
000000000000a748 r .LC1457
000000000000a788 r .LC1458
000000000000a7b8 r .LC1459
00000000000018c0 r .LC146
000000000000231f r .LC1460
000000000000a7e0 r .LC1461
000000000000a828 r .LC1462
0000000000002332 r .LC1463
0000000000002344 r .LC1464
000000000000a858 r .LC1465
000000000000a898 r .LC1466
00000000000000d8 r .LC1467
0000000000002360 r .LC1468
000000000000a8e0 r .LC1469
000000000000023f r .LC147
000000000000236f r .LC1470
0000000000002374 r .LC1471
000000000000237a r .LC1472
000000000000a910 r .LC1473
000000000000a950 r .LC1474
000000000000a9b0 r .LC1475
000000000000a9e0 r .LC1476
0000000000002381 r .LC1477
000000000000aa10 r .LC1478
000000000000aa48 r .LC1479
0000000000001900 r .LC148
000000000000aa98 r .LC1480
0000000000002393 r .LC1481
00000000000023a5 r .LC1482
00000000000023b8 r .LC1483
000000000000aaf8 r .LC1484
00000000000023d0 r .LC1486
00000000000023d2 r .LC1487
00000000000023d8 r .LC1488
00000000000023df r .LC1489
0000000000001960 r .LC149
00000000000023e6 r .LC1490
00000000000023eb r .LC1491
00000000000023f2 r .LC1492
00000000000023f8 r .LC1493
00000000000023ff r .LC1494
0000000000002411 r .LC1495
0000000000002420 r .LC1496
000000000000242f r .LC1497
000000000000244b r .LC1498
000000000000245e r .LC1499
0000000000000160 r .LC15
0000000000000258 r .LC150
0000000000002473 r .LC1500
000000000000247d r .LC1501
0000000000002487 r .LC1502
0000000000002490 r .LC1503
000000000000ab28 r .LC1504
000000000000ab58 r .LC1505
000000000000ab80 r .LC1506
000000000000249e r .LC1507
00000000000024af r .LC1508
00000000000024b7 r .LC1509
000000000000026d r .LC151
00000000000024c4 r .LC1510
00000000000024d6 r .LC1511
00000000000024e3 r .LC1512
00000000000024f6 r .LC1513
0000000000002502 r .LC1514
0000000000002512 r .LC1515
0000000000002522 r .LC1516
000000000000253c r .LC1517
0000000000002557 r .LC1518
000000000000256c r .LC1519
0000000000001988 r .LC152
0000000000002583 r .LC1520
0000000000002589 r .LC1521
000000000000abb0 r .LC1522
0000000000002596 r .LC1523
000000000000ac38 r .LC1524
00000000000025a7 r .LC1525
00000000000025b1 r .LC1526
000000000000ac88 r .LC1527
00000000000025c0 r .LC1528
000000000000acc8 r .LC1529
00000000000019c0 r .LC153
00000000000025d3 r .LC1530
00000000000025ec r .LC1531
0000000000002604 r .LC1532
000000000000261d r .LC1533
000000000000ad10 r .LC1534
0000000000002623 r .LC1535
000000000000263a r .LC1536
0000000000002652 r .LC1537
0000000000002669 r .LC1538
000000000000ad48 r .LC1539
000000000000028a r .LC154
000000000000ad70 r .LC1540
000000000000ad98 r .LC1541
000000000000add8 r .LC1542
0000000000002672 r .LC1543
000000000000ae70 r .LC1544
0000000000002688 r .LC1546
000000000000269f r .LC1547
00000000000026ac r .LC1548
00000000000026bd r .LC1549
00000000000002a4 r .LC155
000000000000aef8 r .LC1550
00000000000026db r .LC1551
00000000000026ea r .LC1552
000000000000af20 r .LC1553
000000000000af48 r .LC1554
000000000000af78 r .LC1555
00000000000026f4 r .LC1556
0000000000002703 r .LC1557
000000000000270d r .LC1558
000000000000271b r .LC1559
00000000000000f0 r .LC156
000000000000afa8 r .LC1560
0000000000002724 r .LC1561
000000000000272d r .LC1562
0000000000002735 r .LC1563
000000000000b038 r .LC1565
00000000000000e0 r .LC1566
000000000000b088 r .LC1567
000000000000b0c8 r .LC1568
000000000000b0f0 r .LC1569
0000000000000024 r .LC157
0000000000002745 r .LC1570
0000000000002751 r .LC1571
0000000000002758 r .LC1572
000000000000b148 r .LC1573
0000000000002772 r .LC1574
0000000000002780 r .LC1575
0000000000002788 r .LC1576
0000000000002794 r .LC1577
000000000000279b r .LC1578
00000000000027a5 r .LC1579
0000000000000028 r .LC158
00000000000027b7 r .LC1580
00000000000027c4 r .LC1581
00000000000027d5 r .LC1582
000000000000b198 r .LC1583
00000000000027e1 r .LC1584
00000000000027f1 r .LC1585
000000000000280d r .LC1586
0000000000002819 r .LC1587
0000000000002825 r .LC1588
000000000000282a r .LC1589
0000000000000020 r .LC159
0000000000002833 r .LC1590
0000000000002842 r .LC1591
000000000000284f r .LC1592
0000000000002869 r .LC1593
0000000000002881 r .LC1594
0000000000002899 r .LC1595
000000000000b1c8 r .LC1596
00000000000028aa r .LC1597
000000000000b1f0 r .LC1598
00000000000028ba r .LC1599
00000000000000e8 r .LC16
0000000000000038 r .LC160
000000000000b218 r .LC1600
00000000000028c9 r .LC1601
00000000000028e7 r .LC1602
00000000000028f7 r .LC1603
000000000000b260 r .LC1604
000000000000290b r .LC1605
000000000000b288 r .LC1606
000000000000b2b8 r .LC1607
000000000000291d r .LC1608
000000000000292d r .LC1609
0000000000001a08 r .LC161
0000000000002933 r .LC1610
0000000000002946 r .LC1611
000000000000295d r .LC1612
000000000000b2e0 r .LC1613
000000000000b300 r .LC1614
0000000000002964 r .LC1615
0000000000002975 r .LC1616
000000000000297c r .LC1617
0000000000002998 r .LC1618
00000000000029a3 r .LC1619
00000000000002ae r .LC162
00000000000029ab r .LC1620
00000000000029b9 r .LC1621
00000000000029c8 r .LC1622
00000000000029dc r .LC1623
00000000000029e9 r .LC1624
00000000000029f7 r .LC1625
0000000000002a03 r .LC1626
0000000000002a18 r .LC1627
0000000000002a2c r .LC1628
0000000000002a42 r .LC1629
00000000000000b0 r .LC163
0000000000002a4e r .LC1630
0000000000002a5f r .LC1631
0000000000002a6e r .LC1632
0000000000002a77 r .LC1633
0000000000002a87 r .LC1634
0000000000002a8b r .LC1635
0000000000002a9d r .LC1636
0000000000002ab8 r .LC1637
0000000000002ac9 r .LC1638
0000000000002adc r .LC1639
000000000000002c r .LC164
0000000000002aeb r .LC1640
000000000000b330 r .LC1641
000000000000b358 r .LC1642
0000000000002b00 r .LC1643
0000000000002b0b r .LC1644
0000000000002b14 r .LC1645
0000000000002b25 r .LC1646
000000000000b390 r .LC1647
0000000000002b32 r .LC1648
000000000000b3d8 r .LC1649
00000000000002be r .LC165
0000000000002b3b r .LC1650
000000000000b410 r .LC1651
0000000000002b52 r .LC1652
0000000000002b61 r .LC1653
0000000000002b6b r .LC1654
0000000000002b7f r .LC1655
000000000000b440 r .LC1656
0000000000002b99 r .LC1657
0000000000002bb1 r .LC1658
0000000000002bc4 r .LC1659
0000000000000000 r .LC166
0000000000002bcd r .LC1660
0000000000002bd5 r .LC1661
000000000000b468 r .LC1662
0000000000002bdb r .LC1663
000000000000b4b0 r .LC1664
000000000000b4e8 r .LC1665
000000000000b518 r .LC1666
000000000000b550 r .LC1667
0000000000002bf0 r .LC1668
0000000000002bfa r .LC1669
0000000000000020 r .LC167
0000000000002c0a r .LC1670
0000000000002c26 r .LC1671
000000000000b590 r .LC1672
0000000000002c39 r .LC1673
000000000000b5c0 r .LC1674
0000000000002c57 r .LC1675
000000000000b5f0 r .LC1676
0000000000002c6e r .LC1677
0000000000002c87 r .LC1678
000000000000b628 r .LC1679
0000000000000030 r .LC168
0000000000002c9a r .LC1680
0000000000002ca2 r .LC1681
0000000000002cb1 r .LC1682
000000000000b668 r .LC1683
0000000000002cca r .LC1684
0000000000002cd8 r .LC1685
0000000000002ceb r .LC1686
0000000000002cff r .LC1687
00000000000000d4 r .LC1689
0000000000000040 r .LC169
0000000000000000 r .LC1691
000000000000b6c0 r .LC1692
000000000000b708 r .LC1693
0000000000000000 r .LC17
0000000000000050 r .LC170
0000000000000000 r .LC171
0000000000000060 r .LC172
0000000000000070 r .LC173
0000000000000080 r .LC174
0000000000000090 r .LC175
00000000000000a0 r .LC176
00000000000000b0 r .LC177
00000000000000c0 r .LC178
00000000000000d0 r .LC179
0000000000000040 r .LC18
00000000000000e0 r .LC180
0000000000000220 r .LC181
00000000000000f0 r .LC182
0000000000000100 r .LC183
0000000000000110 r .LC184
0000000000000074 r .LC185
0000000000000008 r .LC186
0000000000000000 r .LC187
0000000000000010 r .LC188
0000000000000018 r .LC189
0000000000000000 r .LC19
00000000000001e8 r .LC190
0000000000000020 r .LC191
0000000000000028 r .LC192
00000000000002cb r .LC193
00000000000002d5 r .LC194
0000000000000120 r .LC195
0000000000000130 r .LC197
0000000000000030 r .LC198
0000000000000188 r .LC199
0000000000000080 r .LC20
0000000000000120 r .LC201
0000000000001a50 r .LC202
00000000000002e3 r .LC203
0000000000001a78 r .LC204
00000000000002f1 r .LC205
0000000000001ab8 r .LC206
0000000000001b08 r .LC207
0000000000001b40 r .LC208
0000000000000308 r .LC209
00000000000000f0 r .LC21
0000000000001bb8 r .LC210
0000000000000319 r .LC211
0000000000000329 r .LC212
0000000000000337 r .LC213
000000000000033a r .LC214
0000000000001c38 r .LC215
0000000000001c78 r .LC216
000000000000033f r .LC217
0000000000000343 r .LC218
0000000000000030 r .LC219
0000000000000118 r .LC22
0000000000000034 r .LC221
0000000000000038 r .LC222
000000000000003c r .LC223
00000000000000a4 r .LC224
0000000000000040 r .LC225
0000000000000044 r .LC227
0000000000000048 r .LC229
000000000000001c r .LC23
0000000000000010 r .LC230
000000000000034b r .LC231
0000000000000369 r .LC232
000000000000036e r .LC233
000000000000037b r .LC234
0000000000000384 r .LC235
000000000000038c r .LC236
0000000000000394 r .LC237
000000000000039b r .LC238
00000000000003a8 r .LC239
0000000000000038 r .LC24
00000000000003b0 r .LC240
00000000000003bf r .LC241
00000000000003cd r .LC242
00000000000003d5 r .LC243
00000000000003e3 r .LC244
00000000000003f4 r .LC245
00000000000003fe r .LC246
000000000000040a r .LC247
0000000000000418 r .LC248
000000000000042d r .LC249
0000000000000150 r .LC25
0000000000000441 r .LC250
000000000000044b r .LC251
0000000000000456 r .LC252
0000000000000467 r .LC253
000000000000046e r .LC254
000000000000047c r .LC255
0000000000000489 r .LC256
0000000000000490 r .LC257
000000000000049e r .LC258
00000000000004ab r .LC259
00000000000001a8 r .LC26
00000000000004b5 r .LC260
00000000000004c6 r .LC261
00000000000004d6 r .LC262
00000000000004e1 r .LC263
00000000000004f3 r .LC264
0000000000000504 r .LC265
0000000000000514 r .LC266
000000000000051f r .LC267
0000000000000523 r .LC268
000000000000052f r .LC269
00000000000001e8 r .LC27
0000000000000543 r .LC270
000000000000054d r .LC271
000000000000055f r .LC272
0000000000000579 r .LC273
0000000000000588 r .LC274
0000000000000597 r .LC275
00000000000005a1 r .LC276
00000000000005b2 r .LC277
00000000000005c0 r .LC278
00000000000005d5 r .LC279
0000000000000031 r .LC28
00000000000005e3 r .LC280
00000000000005f5 r .LC281
0000000000000606 r .LC282
0000000000000611 r .LC283
000000000000061f r .LC284
0000000000000628 r .LC285
0000000000000637 r .LC286
0000000000000641 r .LC287
0000000000000650 r .LC288
000000000000065e r .LC289
0000000000000218 r .LC29
0000000000000668 r .LC290
000000000000067e r .LC291
0000000000000690 r .LC292
0000000000001ca8 r .LC293
000000000000004c r .LC296
0000000000000038 r .LC297
00000000000000c4 r .LC298
0000000000000050 r .LC299
0000000000000268 r .LC30
00000000000000a8 r .LC300
0000000000000054 r .LC301
0000000000001cd8 r .LC304
00000000000006a1 r .LC305
0000000000001d10 r .LC306
0000000000001d38 r .LC307
0000000000001de8 r .LC308
00000000000006ae r .LC309
00000000000002f0 r .LC31
0000000000001e30 r .LC310
0000000000001e78 r .LC311
0000000000001ee0 r .LC312
00000000000006bf r .LC313
00000000000006c8 r .LC314
00000000000006e4 r .LC315
0000000000001f18 r .LC317
00000000000006fe r .LC318
0000000000000707 r .LC319
0000000000000350 r .LC32
0000000000000711 r .LC320
000000000000071d r .LC321
000000000000072e r .LC322
000000000000073f r .LC323
000000000000074c r .LC324
000000000000075a r .LC325
000000000000076b r .LC326
0000000000000777 r .LC327
0000000000000786 r .LC328
0000000000000798 r .LC329
0000000000000390 r .LC33
00000000000007a7 r .LC330
00000000000007ba r .LC331
00000000000007d3 r .LC332
00000000000007e7 r .LC333
0000000000001f58 r .LC334
0000000000001f88 r .LC335
00000000000007fa r .LC336
0000000000001fd0 r .LC337
0000000000002010 r .LC338
0000000000002030 r .LC339
00000000000003d8 r .LC34
000000000000080d r .LC340
0000000000002060 r .LC341
00000000000020b8 r .LC342
00000000000020f0 r .LC343
0000000000002128 r .LC344
0000000000002168 r .LC345
0000000000002190 r .LC346
00000000000021d0 r .LC347
0000000000002200 r .LC348
0000000000002230 r .LC349
0000000000000428 r .LC35
0000000000000188 r .LC350
0000000000002260 r .LC351
0000000000000815 r .LC352
0000000000000826 r .LC353
0000000000002298 r .LC354
00000000000022e0 r .LC355
000000000000083d r .LC356
0000000000002318 r .LC357
0000000000000859 r .LC358
0000000000000863 r .LC359
0000000000000488 r .LC36
000000000000086f r .LC360
0000000000000871 r .LC361
000000000000087a r .LC362
0000000000000885 r .LC363
00000000000008a2 r .LC364
00000000000008b1 r .LC365
00000000000008c7 r .LC366
00000000000008d1 r .LC367
00000000000008dd r .LC368
00000000000008ec r .LC369
00000000000004d0 r .LC37
00000000000008f8 r .LC370
0000000000000908 r .LC371
000000000000091e r .LC372
000000000000092f r .LC373
0000000000000940 r .LC374
0000000000000944 r .LC375
000000000000094f r .LC376
000000000000095c r .LC377
0000000000000962 r .LC378
0000000000002338 r .LC379
0000000000000570 r .LC38
0000000000000969 r .LC380
0000000000002360 r .LC381
0000000000000977 r .LC382
0000000000002398 r .LC383
00000000000023c8 r .LC384
0000000000002410 r .LC385
0000000000000058 r .LC386
0000000000002430 r .LC387
0000000000000984 r .LC388
0000000000002488 r .LC389
00000000000005d0 r .LC39
00000000000024c8 r .LC390
0000000000002538 r .LC391
0000000000002580 r .LC392
00000000000025a8 r .LC393
0000000000000995 r .LC394
00000000000025c8 r .LC395
000000000000099d r .LC396
0000000000002608 r .LC397
00000000000009ad r .LC398
0000000000002648 r .LC399
0000000000000690 r .LC40
00000000000026a8 r .LC400
00000000000026e0 r .LC401
0000000000002708 r .LC402
0000000000002738 r .LC403
0000000000002760 r .LC404
0000000000002790 r .LC405
00000000000027c0 r .LC406
00000000000027f8 r .LC407
00000000000009c1 r .LC408
0000000000002828 r .LC409
0000000000000728 r .LC41
0000000000002858 r .LC410
00000000000028a0 r .LC411
00000000000028c8 r .LC412
0000000000002910 r .LC413
0000000000002960 r .LC414
0000000000002980 r .LC415
00000000000029c8 r .LC416
0000000000002a00 r .LC417
0000000000002a38 r .LC418
0000000000002a70 r .LC419
00000000000007a0 r .LC42
0000000000002ad0 r .LC420
0000000000002b00 r .LC421
0000000000002b50 r .LC422
00000000000009d9 r .LC423
0000000000002b78 r .LC424
0000000000002bb0 r .LC425
00000000000009f4 r .LC426
0000000000002be8 r .LC427
0000000000002c28 r .LC428
0000000000000a06 r .LC429
0000000000000818 r .LC43
0000000000002c58 r .LC430
0000000000000a1a r .LC431
0000000000002c88 r .LC432
000000000000005c r .LC433
0000000000002cc0 r .LC434
0000000000002cf8 r .LC435
0000000000002d28 r .LC436
0000000000002d68 r .LC437
0000000000000a2e r .LC438
0000000000000a3d r .LC439
00000000000008d0 r .LC44
0000000000002d90 r .LC440
0000000000000a54 r .LC441
0000000000000a5c r .LC442
0000000000000a65 r .LC443
0000000000000a6c r .LC444
0000000000000a75 r .LC445
0000000000000a7a r .LC446
0000000000002dc0 r .LC447
0000000000002de8 r .LC448
0000000000000a82 r .LC449
0000000000000930 r .LC45
0000000000000a89 r .LC450
0000000000000a8e r .LC451
0000000000000a95 r .LC452
0000000000000a9b r .LC453
0000000000000060 r .LC454
0000000000002e68 r .LC455
0000000000000140 r .LC456
0000000000002eb0 r .LC457
0000000000002ee8 r .LC458
0000000000002f20 r .LC459
0000000000000990 r .LC46
0000000000002f60 r .LC460
0000000000002f98 r .LC461
0000000000002fd8 r .LC462
0000000000003010 r .LC463
0000000000003050 r .LC464
0000000000003088 r .LC465
00000000000030c8 r .LC466
0000000000003100 r .LC467
0000000000003140 r .LC468
0000000000000040 r .LC469
00000000000009f0 r .LC47
0000000000003178 r .LC470
00000000000031b8 r .LC471
00000000000031f8 r .LC472
0000000000003280 r .LC473
00000000000032b8 r .LC474
0000000000003320 r .LC475
0000000000003360 r .LC476
0000000000003398 r .LC477
00000000000033d8 r .LC478
0000000000003418 r .LC479
0000000000000a50 r .LC48
0000000000003458 r .LC480
0000000000003498 r .LC481
00000000000034d8 r .LC482
0000000000000aa6 r .LC483
0000000000003508 r .LC484
0000000000003540 r .LC485
0000000000003590 r .LC486
00000000000035f0 r .LC487
0000000000003650 r .LC488
0000000000000ab5 r .LC489
0000000000000ab0 r .LC49
0000000000000150 r .LC490
0000000000000048 r .LC491
0000000000003688 r .LC492
00000000000036c8 r .LC493
0000000000000abd r .LC494
0000000000000064 r .LC495
0000000000000050 r .LC496
0000000000000048 r .LC497
0000000000000050 r .LC498
0000000000000068 r .LC499
0000000000000b10 r .LC50
0000000000003700 r .LC500
0000000000000ad7 r .LC501
0000000000003730 r .LC502
0000000000000ae2 r .LC503
0000000000003768 r .LC504
0000000000003798 r .LC505
00000000000037c0 r .LC506
00000000000037f0 r .LC507
0000000000003838 r .LC508
000000000000006c r .LC509
0000000000000b60 r .LC51
0000000000003868 r .LC510
00000000000038b0 r .LC511
00000000000038f8 r .LC512
0000000000003958 r .LC513
00000000000039b8 r .LC514
00000000000039e0 r .LC515
0000000000003a28 r .LC516
0000000000003a90 r .LC517
0000000000000aff r .LC518
0000000000003ae0 r .LC519
000000000000003f r .LC52
0000000000003b68 r .LC520
0000000000003bb0 r .LC521
0000000000000b0e r .LC522
0000000000003be8 r .LC523
0000000000000b24 r .LC524
0000000000003c28 r .LC525
0000000000003c70 r .LC526
0000000000003cb8 r .LC527
0000000000000070 r .LC529
0000000000000ba0 r .LC53
0000000000000074 r .LC531
0000000000003ce0 r .LC533
0000000000000b2c r .LC534
0000000000003d10 r .LC535
0000000000003d40 r .LC536
0000000000000b42 r .LC537
0000000000003d78 r .LC538
0000000000000b45 r .LC539
0000000000000c28 r .LC54
0000000000003da0 r .LC540
0000000000003de0 r .LC541
0000000000003e18 r .LC542
0000000000003e58 r .LC543
0000000000000b5d r .LC544
0000000000000b60 r .LC545
0000000000003e98 r .LC546
0000000000003ee8 r .LC547
0000000000000b63 r .LC548
0000000000003f48 r .LC549
0000000000000cb0 r .LC55
0000000000000b7e r .LC550
0000000000000b88 r .LC551
0000000000000b93 r .LC552
0000000000000b9f r .LC553
0000000000000bb2 r .LC554
0000000000000bc5 r .LC555
0000000000000bd0 r .LC556
0000000000000bde r .LC557
0000000000000bed r .LC558
0000000000000bff r .LC559
0000000000000d10 r .LC56
0000000000003f90 r .LC560
0000000000003fd0 r .LC561
0000000000004008 r .LC562
0000000000004080 r .LC563
0000000000000c0f r .LC564
0000000000000c17 r .LC565
0000000000000c1e r .LC566
0000000000000c38 r .LC567
00000000000040e0 r .LC568
0000000000004108 r .LC569
0000000000000000 r .LC57
0000000000000c55 r .LC570
0000000000000c6e r .LC571
0000000000000c7e r .LC572
0000000000000c86 r .LC573
0000000000000c91 r .LC574
0000000000000c9b r .LC575
0000000000000cb0 r .LC576
0000000000004130 r .LC577
0000000000000cca r .LC578
0000000000004158 r .LC579
0000000000000df8 r .LC58
0000000000004180 r .LC580
0000000000000148 r .LC581
0000000000000160 r .LC582
00000000000041b0 r .LC585
0000000000000ce3 r .LC586
0000000000000170 r .LC587
0000000000000180 r .LC588
0000000000000052 r .LC59
0000000000004228 r .LC590
0000000000004260 r .LC591
0000000000000078 r .LC592
000000000000007c r .LC593
0000000000000080 r .LC594
00000000000000ac r .LC595
0000000000000058 r .LC596
0000000000000060 r .LC597
0000000000000068 r .LC599
000000000000005b r .LC60
0000000000000084 r .LC600
0000000000000d0d r .LC602
0000000000000d18 r .LC603
0000000000000d2c r .LC604
0000000000000d33 r .LC605
0000000000000d39 r .LC606
0000000000000d3f r .LC607
0000000000000d49 r .LC608
0000000000000d4c r .LC609
0000000000000065 r .LC61
0000000000000d53 r .LC610
0000000000000d5d r .LC611
0000000000004280 r .LC612
00000000000042b0 r .LC613
00000000000042d8 r .LC614
0000000000004328 r .LC615
0000000000004358 r .LC616
0000000000000d64 r .LC617
0000000000000d7b r .LC618
0000000000000d8d r .LC619
0000000000000070 r .LC62
0000000000000d99 r .LC620
0000000000000da8 r .LC621
0000000000000dc6 r .LC622
00000000000043d0 r .LC623
0000000000000de3 r .LC624
0000000000000088 r .LC625
00000000000043f8 r .LC626
0000000000000df1 r .LC627
0000000000000dfe r .LC628
0000000000004490 r .LC629
0000000000000082 r .LC63
00000000000044c8 r .LC630
00000000000044f8 r .LC631
0000000000004538 r .LC632
0000000000000e06 r .LC633
0000000000000e1e r .LC634
0000000000000e3b r .LC635
0000000000004568 r .LC636
00000000000045a8 r .LC637
00000000000045d0 r .LC638
0000000000004618 r .LC639
0000000000000094 r .LC64
0000000000004648 r .LC640
0000000000000e55 r .LC641
0000000000000e5f r .LC642
0000000000000e69 r .LC643
0000000000000e6e r .LC644
0000000000004678 r .LC645
00000000000046a0 r .LC646
0000000000000e71 r .LC647
00000000000046d0 r .LC648
0000000000000e86 r .LC649
00000000000000a1 r .LC65
0000000000004730 r .LC650
0000000000004798 r .LC651
0000000000000e9d r .LC652
0000000000000eb3 r .LC653
0000000000000eb9 r .LC654
00000000000047f8 r .LC655
0000000000000ec5 r .LC656
0000000000004820 r .LC657
0000000000004848 r .LC658
0000000000004870 r .LC659
00000000000000ac r .LC66
0000000000004898 r .LC660
0000000000000ec9 r .LC661
0000000000000edf r .LC662
0000000000000efb r .LC663
00000000000048c0 r .LC664
0000000000004908 r .LC665
0000000000000f13 r .LC666
0000000000000f1a r .LC667
0000000000000f36 r .LC668
0000000000000f52 r .LC669
00000000000000bb r .LC67
0000000000004958 r .LC670
0000000000000f63 r .LC671
00000000000049b0 r .LC672
0000000000000f80 r .LC673
00000000000049f0 r .LC674
0000000000004a20 r .LC675
0000000000004a58 r .LC676
0000000000004aa8 r .LC677
0000000000004b20 r .LC678
0000000000004b48 r .LC679
00000000000000c7 r .LC68
0000000000004bb8 r .LC680
0000000000004be8 r .LC681
0000000000004c18 r .LC682
0000000000004c60 r .LC683
0000000000004c90 r .LC684
0000000000000f84 r .LC685
0000000000004cb8 r .LC686
0000000000004ce8 r .LC687
0000000000000070 r .LC688
0000000000004d10 r .LC689
00000000000000d4 r .LC69
0000000000004d88 r .LC690
0000000000004db0 r .LC691
0000000000004de0 r .LC693
0000000000004e10 r .LC694
0000000000004e60 r .LC695
0000000000004e98 r .LC696
0000000000004ed8 r .LC697
0000000000004f28 r .LC698
0000000000004f60 r .LC699
0000000000000e48 r .LC70
0000000000000f94 r .LC700
0000000000004f88 r .LC701
0000000000004fb8 r .LC702
0000000000005000 r .LC703
0000000000000fb2 r .LC704
0000000000005030 r .LC705
0000000000005088 r .LC707
00000000000050c8 r .LC708
0000000000005110 r .LC709
00000000000000d9 r .LC71
0000000000005148 r .LC710
0000000000005180 r .LC711
00000000000051a8 r .LC712
00000000000051f0 r .LC713
0000000000005240 r .LC714
00000000000052a0 r .LC715
00000000000052d8 r .LC716
0000000000000fc8 r .LC717
0000000000005320 r .LC718
0000000000005360 r .LC719
0000000000000e78 r .LC72
0000000000005398 r .LC720
00000000000053e0 r .LC721
0000000000005428 r .LC722
0000000000005450 r .LC723
0000000000005490 r .LC724
00000000000054c8 r .LC725
0000000000000fe4 r .LC726
0000000000005510 r .LC727
0000000000005550 r .LC728
0000000000005580 r .LC729
00000000000000ec r .LC73
00000000000055b8 r .LC730
0000000000000ff3 r .LC731
0000000000005608 r .LC732
0000000000001006 r .LC733
0000000000005648 r .LC734
0000000000005668 r .LC735
00000000000056b0 r .LC736
00000000000056d8 r .LC737
0000000000005720 r .LC738
0000000000005750 r .LC739
0000000000000ea0 r .LC74
0000000000001024 r .LC740
0000000000005790 r .LC741
00000000000057e0 r .LC742
000000000000103c r .LC743
0000000000005828 r .LC744
0000000000005858 r .LC745
0000000000005890 r .LC746
0000000000001055 r .LC747
00000000000058c8 r .LC748
0000000000005908 r .LC749
0000000000000102 r .LC75
0000000000005980 r .LC750
00000000000059c0 r .LC751
00000000000059e8 r .LC753
0000000000000078 r .LC754
0000000000005a48 r .LC757
000000000000105c r .LC758
0000000000005a80 r .LC759
0000000000000ee8 r .LC76
0000000000005ac8 r .LC760
0000000000005b60 r .LC761
0000000000005ba8 r .LC762
0000000000005c08 r .LC763
0000000000005c48 r .LC764
0000000000005c70 r .LC765
0000000000005cb8 r .LC766
0000000000005cf0 r .LC767
0000000000001061 r .LC768
0000000000005d58 r .LC769
0000000000000f20 r .LC77
0000000000005d88 r .LC770
0000000000001073 r .LC771
0000000000005db0 r .LC772
0000000000005df0 r .LC773
000000000000108f r .LC774
0000000000005e48 r .LC775
0000000000005e88 r .LC776
0000000000005ec0 r .LC777
00000000000010aa r .LC778
00000000000010bd r .LC779
0000000000000f68 r .LC78
0000000000005f08 r .LC780
0000000000005f60 r .LC781
0000000000005fa0 r .LC782
0000000000005fc8 r .LC783
0000000000005ff0 r .LC784
0000000000006018 r .LC785
00000000000010d5 r .LC786
00000000000010e6 r .LC787
0000000000006068 r .LC788
00000000000010f7 r .LC789
0000000000000fa8 r .LC79
0000000000006088 r .LC790
00000000000060b0 r .LC791
000000000000110a r .LC792
0000000000001120 r .LC793
0000000000006100 r .LC794
0000000000006120 r .LC795
0000000000006148 r .LC796
0000000000006180 r .LC797
00000000000061b8 r .LC798
00000000000061f0 r .LC799
0000000000000fd0 r .LC80
0000000000006220 r .LC800
0000000000006250 r .LC802
0000000000006280 r .LC803
00000000000062a8 r .LC804
00000000000062d8 r .LC805
0000000000006320 r .LC806
0000000000006360 r .LC807
00000000000063a0 r .LC808
00000000000063d8 r .LC809
000000000000011e r .LC81
0000000000006408 r .LC810
0000000000006440 r .LC811
0000000000001136 r .LC812
0000000000006470 r .LC813
00000000000064a8 r .LC814
00000000000064e0 r .LC815
0000000000006508 r .LC816
0000000000001153 r .LC817
0000000000000054 r .LC818
0000000000000190 r .LC819
0000000000000135 r .LC82
00000000000001a0 r .LC820
00000000000001b0 r .LC821
0000000000000080 r .LC822
0000000000001168 r .LC823
0000000000006530 r .LC824
0000000000000034 r .LC825
0000000000006578 r .LC826
0000000000001180 r .LC827
000000000000008c r .LC828
00000000000065a0 r .LC829
0000000000001000 r .LC83
00000000000065d8 r .LC830
00000000000065f8 r .LC831
0000000000001191 r .LC832
0000000000006620 r .LC833
0000000000006648 r .LC834
0000000000006678 r .LC835
00000000000066c0 r .LC836
00000000000066f0 r .LC837
0000000000006710 r .LC838
0000000000006748 r .LC839
0000000000001070 r .LC84
00000000000011ac r .LC840
0000000000006788 r .LC841
00000000000011c7 r .LC842
00000000000067b8 r .LC843
00000000000011e5 r .LC844
00000000000067e0 r .LC845
0000000000006810 r .LC846
0000000000006848 r .LC847
0000000000006878 r .LC848
0000000000000090 r .LC849
0000000000001098 r .LC85
0000000000000094 r .LC850
00000000000068b0 r .LC851
00000000000001c0 r .LC852
0000000000000098 r .LC854
00000000000001c0 r .LC855
00000000000000c0 r .LC858
00000000000011f2 r .LC859
0000000000001108 r .LC86
00000000000068d0 r .LC860
00000000000068f8 r .LC861
0000000000006938 r .LC862
0000000000006988 r .LC863
0000000000006a28 r .LC864
000000000000120f r .LC865
0000000000001227 r .LC866
0000000000006a78 r .LC867
000000000000123d r .LC868
0000000000001242 r .LC869
0000000000001148 r .LC87
000000000000124e r .LC870
0000000000006aa8 r .LC871
0000000000001260 r .LC872
0000000000001278 r .LC873
000000000000009c r .LC874
0000000000001282 r .LC875
0000000000006b10 r .LC876
0000000000006b38 r .LC877
0000000000006b70 r .LC878
000000000000128a r .LC879
00000000000011c0 r .LC88
0000000000001290 r .LC880
00000000000001d0 r .LC881
0000000000006bc8 r .LC884
0000000000001295 r .LC885
00000000000012b0 r .LC886
0000000000006bf8 r .LC887
0000000000006c48 r .LC888
00000000000012cb r .LC889
000000000000014d r .LC89
0000000000006c88 r .LC890
0000000000006cb8 r .LC891
0000000000006cf0 r .LC892
0000000000006d38 r .LC894
0000000000006d70 r .LC895
0000000000006de0 r .LC896
0000000000006e30 r .LC897
00000000000012e4 r .LC898
0000000000006e78 r .LC899
00000000000011f0 r .LC90
00000000000000a0 r .LC900
00000000000000a4 r .LC901
0000000000006ed0 r .LC902
0000000000000088 r .LC903
0000000000006f48 r .LC904
0000000000006f98 r .LC905
0000000000006fe0 r .LC906
0000000000007028 r .LC907
0000000000007058 r .LC908
0000000000007088 r .LC909
0000000000001220 r .LC91
00000000000012f6 r .LC910
00000000000070b0 r .LC912
00000000000001e0 r .LC913
000000000000130d r .LC914
00000000000070d8 r .LC915
0000000000001321 r .LC916
000000000000133b r .LC917
0000000000007128 r .LC918
0000000000007158 r .LC919
0000000000001278 r .LC92
0000000000001343 r .LC920
0000000000007190 r .LC921
00000000000071d0 r .LC922
0000000000001348 r .LC923
0000000000007218 r .LC924
000000000000134e r .LC925
0000000000001354 r .LC927
0000000000001358 r .LC928
000000000000136d r .LC929
00000000000012a8 r .LC93
0000000000001376 r .LC930
0000000000001383 r .LC931
0000000000001394 r .LC932
000000000000139e r .LC933
00000000000013ae r .LC934
00000000000013c2 r .LC935
00000000000013d1 r .LC936
00000000000013df r .LC937
00000000000013eb r .LC938
00000000000013f6 r .LC939
00000000000012e0 r .LC94
0000000000001403 r .LC940
0000000000007250 r .LC941
0000000000007288 r .LC942
0000000000001416 r .LC943
0000000000000090 r .LC944
0000000000007330 r .LC945
0000000000001420 r .LC946
0000000000000000 r .LC947
0000000000000048 r .LC948
0000000000000098 r .LC949
0000000000001320 r .LC95
00000000000001f0 r .LC950
00000000000000a0 r .LC952
0000000000000200 r .LC953
0000000000000170 r .LC954
00000000000000a8 r .LC955
0000000000000158 r .LC956
00000000000000b0 r .LC957
0000000000007360 r .LC959
0000000000001360 r .LC96
0000000000007398 r .LC960
0000000000001429 r .LC961
00000000000073c0 r .LC962
00000000000073e8 r .LC964
0000000000007430 r .LC965
0000000000007480 r .LC966
000000000000143c r .LC967
00000000000074b8 r .LC968
0000000000007500 r .LC969
0000000000001398 r .LC97
00000000000000a8 r .LC970
0000000000000210 r .LC971
0000000000007528 r .LC972
00000000000000ac r .LC973
00000000000000b0 r .LC974
00000000000000b4 r .LC975
00000000000000b8 r .LC976
00000000000000bc r .LC977
0000000000007550 r .LC978
00000000000000c0 r .LC979
00000000000013d8 r .LC98
00000000000075a8 r .LC980
0000000000001457 r .LC981
0000000000001461 r .LC982
0000000000001468 r .LC983
00000000000075e0 r .LC984
0000000000007628 r .LC985
000000000000146e r .LC987
0000000000000220 r .LC988
0000000000001410 r .LC99
0000000000000018 r .LC990
000000000000147e r .LC991
0000000000007650 r .LC992
0000000000007698 r .LC993
0000000000001496 r .LC994
00000000000014a9 r .LC995
00000000000076c0 r .LC996
00000000000076e8 r .LC997
0000000000007708 r .LC998
0000000000007740 r .LC999
0000000000000240 r CSWTCH.2577
0000000000000000 V DW.ref.__gxx_personality_v0
0000000000000008 B GImGui
                 U _Unwind_Resume
00000000000089f0 T _Z10ImFileOpenPKcS0_
0000000000008a90 T _Z10ImFileReadPvyyP8_IO_FILE
0000000000008830 T _Z10ImHashDataPKvmj
0000000000007ba0 T _Z10ImStrnicmpPKcS0_m
0000000000008a00 T _Z11ImFileCloseP8_IO_FILE
0000000000008aa0 T _Z11ImFileWritePKvyyP8_IO_FILE
000000000000bd90 T _Z11ImStrdupcpyPcPmPKc
0000000000009d90 T _Z12ImLowerBoundP16ImGuiStoragePairS0_j
0000000000008a20 T _Z13ImFileGetSizeP8_IO_FILE
0000000000007e10 T _Z13ImStrchrRangePKcS0_c
0000000000007e60 T _Z13ImStreolRangePKcS0_
00000000000080b0 T _Z14ImFormatStringPcmPKcz
0000000000008080 T _Z14ImStrSkipBlankPKc
0000000000008440 T _Z15ImFormatStringVPcmPKcP13__va_list_tag
0000000000007ff0 T _Z15ImStrTrimBlanksPc
0000000000009730 T _Z15ImTextStrToUtf8PciPKtS1_
0000000000009490 T _Z16ImTextCharToUtf8Pcj
00000000000098b0 T _Z16ImTextCountLinesPKcS0_
                 U _Z17ImBezierCubicCalcRK6ImVec2S1_S1_S1_f
0000000000008c70 T _Z17ImTextStrFromUtf8PtiPKcS1_PS1_
0000000000009920 T _Z18ImAlphaBlendColorsjj
000000000000bec0 T _Z18ImFileLoadToMemoryPKcS0_Pmi
0000000000007680 T _Z18ImLineClosestPointRK6ImVec2S1_S1_
0000000000008ab0 T _Z18ImTextCharFromUtf8PjPKcS1_
0000000000002040 t _Z18ImTextCharFromUtf8PjPKcS1_.constprop.0
                 U _Z20ImFontAtlasBuildMainP11ImFontAtlas
                 U _Z21ImFontAtlasBuildClearP11ImFontAtlas
                 U _Z22ImFontAtlasPackGetRectP11ImFontAtlasi
                 U _Z22ImFontAtlasTextureGrowP11ImFontAtlasii
0000000000007880 T _Z22ImTriangleClosestPointRK6ImVec2S1_S1_S1_
0000000000007710 T _Z23ImTriangleContainsPointRK6ImVec2S1_S1_S1_
0000000000009090 T _Z24ImTextCountCharsFromUtf8PKcS0_
00000000000070e0 T _Z25ImBezierCubicClosestPointRK6ImVec2S1_S1_S1_S1_i
                 U _Z25ImFontAtlasUpdateNewFrameP11ImFontAtlasib
0000000000008490 T _Z26ImFormatStringToTempBufferPPKcS1_S0_z
                 U _Z26ImTextureDataGetFormatName15ImTextureFormat
                 U _Z26ImTextureDataGetStatusName15ImTextureStatus
                 U _Z27ImFontAtlasFontDiscardBakesP11ImFontAtlasP6ImFonti
0000000000008690 T _Z27ImFormatStringToTempBufferVPPKcS1_S0_P13__va_list_tag
0000000000009810 T _Z27ImTextCountUtf8BytesFromStrPKtS0_
00000000000077e0 T _Z27ImTriangleBarycentricCoordsRK6ImVec2S1_S1_S1_RfS2_S2_
0000000000009580 T _Z28ImTextCountUtf8BytesFromCharPKcS0_
0000000000008980 T _Z30ImHashSkipUncontributingPrefixPKc
0000000000009870 T _Z31ImTextFindPreviousUtf8CodepointPKcS0_
                 U _Z32ImFontAtlasAddDrawListSharedDataP11ImFontAtlasP20ImDrawListSharedData
                 U _Z32ImFontAtlasGetMouseCursorTexDataP11ImFontAtlasiP6ImVec2S2_S2_S2_
00000000000072d0 T _Z34ImBezierCubicClosestPointCasteljauRK6ImVec2S1_S1_S1_S1_f
                 U _Z34ImFontAtlasDebugLogTextureRequestsP11ImFontAtlas
                 U _Z35ImFontAtlasRemoveDrawListSharedDataP11ImFontAtlasP20ImDrawListSharedData
                 U _Z36ImFontAtlasBuildGetOversampleFactorsP12ImFontConfigP11ImFontBakedPiS3_
                 U _Z36ImFontAtlasUpdateDrawListsSharedDataP11ImFontAtlas
                 U _Z38ImFontAtlasGetFontLoaderForStbTruetypev
0000000000007d20 T _Z8ImMemdupPKvm
0000000000007e90 T _Z8ImStrbolPKcS0_
0000000000007c50 T _Z8ImStrdupPKc
0000000000008880 T _Z9ImHashStrPKcmj
0000000000007b40 T _Z9ImStricmpPKcS0_
0000000000007ec0 T _Z9ImStristrPKcS0_S0_S0_
0000000000007e30 T _Z9ImStrlenWPKt
0000000000007c10 T _Z9ImStrncpyPcPKcm
0000000000000010 b _ZGVZN5ImGui17ShowMetricsWindowEPbE9viewports
0000000000001400 t _ZL11FreeWrapperPvS_
0000000000003aa0 t _ZL11ScaleWindowP11ImGuiWindowf
0000000000001410 t _ZL13MallocWrappermPv
0000000000000340 r _ZL14GStyleVarsInfo
00000000000002e0 r _ZL15resize_grip_def
0000000000000630 t _ZL16DockNodeFindInfoP13ImGuiDockNodeP21ImGuiDockNodeTreeInfo
0000000000000000 t _ZL16PairComparerByIDPKvS0_
000000000001a040 t _ZL16SetCurrentWindowP11ImGuiWindow
0000000000050550 t _ZL16ShowDebugLogFlagPKci
00000000000004a0 r _ZL17GCrc32LookupTable
000000000004c0c0 t _ZL17MetricsHelpMarkerPKc.part.0
0000000000000260 r _ZL17resize_border_def
00000000000016e0 t _ZL19AddWindowToDrawDataP11ImGuiWindowi
0000000000000020 t _ZL19ChildWindowComparerPKvS0_
0000000000003770 t _ZL19GetResizeBorderRectP11ImGuiWindowiff.isra.0
0000000000000000 d _ZL20GImAllocatorFreeFunc
0000000000000080 b _ZL20GImAllocatorUserData
000000000000f140 t _ZL21AddWindowToSortBufferP8ImVectorIP11ImGuiWindowES1_
0000000000004330 t _ZL21CalcWindowAutoFitSizeP11ImGuiWindowRK6ImVec2
0000000000000008 d _ZL21GImAllocatorAllocFunc
00000000000060d0 t _ZL21GetMergedModsFromKeysv
0000000000000070 t _ZL22CalcWindowContentSizesP11ImGuiWindowP6ImVec2S2_
000000000004cbf0 t _ZL22DebugNodeDockNodeFlagsPiPKcb
000000000002b7c0 t _ZL22DockBuilderCopyNodeRecP13ImGuiDockNodejP8ImVectorIjE
00000000000003e0 r _ZL22GWindowDockStyleColors
0000000000006710 t _ZL23GetViewportBgFgDrawListP14ImGuiViewportPmPKc.constprop.0
0000000000003be0 t _ZL24DockNodeIsDropAllowedOneP11ImGuiWindowS0_
0000000000005390 t _ZL24NavUpdateWindowingTargeti
00000000000081a0 t _ZL24StackToolFormatLevelInfoP16ImGuiIDStackToolibPcm.isra.0
00000000000004b0 t _ZL26TabItemComparerByDockOrderPKvS0_
0000000000003870 t _ZL27CalcFontGlyphSrcOverlapMaskP11ImFontAtlasP6ImFontj
0000000000003ef0 t _ZL29CalcWindowSizeAfterConstraintP11ImGuiWindowRK6ImVec2.isra.0
0000000000005840 t _ZL29RenderWindowOuterSingleBorderP11ImGuiWindowijf
0000000000004720 t _ZL29SetWindowActiveForSkipRefreshP11ImGuiWindow
0000000000004110 t _ZL30CalcResizePosSizeFromAnyCornerP11ImGuiWindowRK6ImVec2S3_PS1_S4_.isra.0
0000000000000460 t _ZL30DockNodeComparerDepthMostFirstPKvS0_
0000000000005640 t _ZL30WindowSettingsHandler_ApplyAllP12ImGuiContextP20ImGuiSettingsHandler
000000000000c0e0 t _ZL30WindowSettingsHandler_ClearAllP12ImGuiContextP20ImGuiSettingsHandler
00000000000014b0 t _ZL30WindowSettingsHandler_ReadLineP12ImGuiContextP20ImGuiSettingsHandlerPvPKc
0000000000024640 t _ZL30WindowSettingsHandler_ReadOpenP12ImGuiContextP20ImGuiSettingsHandlerPKc
0000000000024740 t _ZL30WindowSettingsHandler_WriteAllP12ImGuiContextP20ImGuiSettingsHandlerP15ImGuiTextBuffer
00000000000005e0 t _ZL33Platform_SetImeDataFn_DefaultImplP12ImGuiContextP13ImGuiViewportP20ImGuiPlatformImeData
0000000000001420 t _ZL34Platform_OpenInShellFn_DefaultImplP12ImGuiContextPKc
00000000000001e0 t _ZL38CalcNextScrollFromScrollTargetAndClampP11ImGuiWindow
000000000000f7e0 t _ZL38DockSettingsHandler_DockNodeToSettingsP16ImGuiDockContextP13ImGuiDockNodei
00000000000102f0 t _ZL38DockSettingsHandler_DockNodeToSettingsP16ImGuiDockContextP13ImGuiDockNodei.constprop.1
0000000000010040 t _ZL38DockSettingsHandler_DockNodeToSettingsP16ImGuiDockContextP13ImGuiDockNodei.constprop.2
000000000000fd90 t _ZL38DockSettingsHandler_DockNodeToSettingsP16ImGuiDockContextP13ImGuiDockNodei.constprop.3
000000000000fad0 t _ZL38DockSettingsHandler_DockNodeToSettingsP16ImGuiDockContextP13ImGuiDockNodei.constprop.4
0000000000005dc0 t _ZL38ImBezierCubicClosestPointCasteljauStepRK6ImVec2RS_S2_Rffffffffffi
00000000000005c0 t _ZL39Platform_GetClipboardTextFn_DefaultImplP12ImGuiContext
000000000000e820 t _ZL39Platform_SetClipboardTextFn_DefaultImplP12ImGuiContextPKc
00000000000005f0 t _ZL39ViewportComparerByLastFocusedStampCountPKvS0_
0000000000014460 t _ZL42DockNodeTreeUpdateSplitterFindTouchingNodeP13ImGuiDockNode9ImGuiAxisiP8ImVectorIS0_E
00000000000012e0 t _ZL43ImGuiListClipper_SeekCursorAndSetupPrevLineP16ImGuiListClipperff
0000000000000000 d _ZL9GKeyNames
                 U _ZN10ImDrawData5ClearEv
                 U _ZN10ImDrawList10AddDrawCmdEv
                 U _ZN10ImDrawList10PopTextureEv
                 U _ZN10ImDrawList11AddPolylineEPK6ImVec2ijif
                 U _ZN10ImDrawList11PopClipRectEv
                 U _ZN10ImDrawList11PushTextureE12ImTextureRef
                 U _ZN10ImDrawList11_SetTextureE12ImTextureRef
                 U _ZN10ImDrawList12PushClipRectERK6ImVec2S2_b
                 U _ZN10ImDrawList13AddRectFilledERK6ImVec2S2_jfi
                 U _ZN10ImDrawList13PathArcToFastERK6ImVec2fii
                 U _ZN10ImDrawList16_ClearFreeMemoryEv
                 U _ZN10ImDrawList17AddTriangleFilledERK6ImVec2S2_S2_j
                 U _ZN10ImDrawList17_PopUnusedDrawCmdEv
                 U _ZN10ImDrawList17_ResetForNewFrameEv
                 U _ZN10ImDrawList19AddConvexPolyFilledEPK6ImVec2ij
                 U _ZN10ImDrawList22PushClipRectFullScreenEv
                 U _ZN10ImDrawList22_SetDrawListSharedDataEP20ImDrawListSharedData
                 U _ZN10ImDrawList7AddLineERK6ImVec2S2_jf
                 U _ZN10ImDrawList7AddRectERK6ImVec2S2_jfif
                 U _ZN10ImDrawList7AddTextEP6ImFontfRK6ImVec2jPKcS6_fPK6ImVec4
                 U _ZN10ImDrawList7AddTextERK6ImVec2jPKcS4_
                 U _ZN10ImDrawList8AddImageE12ImTextureRefRK6ImVec2S3_S3_S3_j
                 U _ZN10ImDrawList9PathArcToERK6ImVec2fffi
                 U _ZN10ImDrawListC1EP20ImDrawListSharedData
                 U _ZN10ImDrawListD1Ev
0000000000006a40 T _ZN10ImGuiStyle13ScaleAllSizesEf
00000000000068a0 T _ZN10ImGuiStyleC1Ev
00000000000068a0 T _ZN10ImGuiStyleC2Ev
                 U _ZN11ImFontAtlas10RemoveFontEP6ImFont
                 U _ZN11ImFontAtlas12CompactCacheEv
                 U _ZN11ImFontAtlas13SetFontLoaderEPK12ImFontLoader
                 U _ZN11ImFontAtlasC1Ev
                 U _ZN11ImFontAtlasD1Ev
                 U _ZN11ImFontBaked13IsGlyphLoadedEt
                 U _ZN11ImFontBaked14GetCharAdvanceEt
                 U _ZN11ImFontBaked9FindGlyphEt
                 U _ZN11ImFontBakedC1Ev
                 U _ZN11ImGuiTabBarC1Ev
000000000001a6a0 T _ZN11ImGuiWindow12GetIDFromPosERK6ImVec2
000000000001a790 T _ZN11ImGuiWindow18GetIDFromRectangleERK6ImRect
000000000003b060 T _ZN11ImGuiWindow5GetIDEPKcS1_
000000000003b8e0 t _ZN11ImGuiWindow5GetIDEPKcS1_.constprop.0
000000000003b0f0 T _ZN11ImGuiWindow5GetIDEPKv
000000000003b3c0 T _ZN11ImGuiWindow5GetIDEi
000000000003cd40 T _ZN11ImGuiWindowC1EP12ImGuiContextPKc
000000000003cd40 T _ZN11ImGuiWindowC2EP12ImGuiContextPKc
00000000000000de t _ZN11ImGuiWindowC2EP12ImGuiContextPKc.cold
000000000000c690 T _ZN11ImGuiWindowD1Ev
000000000000c690 T _ZN11ImGuiWindowD2Ev
000000000003f940 T _ZN12ImGuiContextC1EP11ImFontAtlas
000000000003f940 T _ZN12ImGuiContextC2EP11ImFontAtlas
0000000000000188 t _ZN12ImGuiContextC2EP11ImFontAtlas.cold
0000000000000000 W _ZN12ImGuiContextD1Ev
0000000000000000 W _ZN12ImGuiContextD2Ev
0000000000000000 n _ZN12ImGuiContextD5Ev
0000000000012130 T _ZN12ImGuiStorage10GetBoolRefEjb
00000000000123a0 T _ZN12ImGuiStorage10SetVoidPtrEjPv
0000000000011ed0 T _ZN12ImGuiStorage11GetFloatRefEjf
0000000000011c70 T _ZN12ImGuiStorage13GetVoidPtrRefEjPv
0000000000009dd0 T _ZN12ImGuiStorage14BuildSortByKeyEv
0000000000012610 T _ZN12ImGuiStorage6SetIntEji
0000000000012b00 T _ZN12ImGuiStorage7SetBoolEjb
0000000000012890 T _ZN12ImGuiStorage8SetFloatEjf
0000000000011a10 T _ZN12ImGuiStorage9GetIntRefEji
0000000000009fc0 T _ZN12ImGuiStorage9SetAllIntEi
0000000000026d20 T _ZN13ImGuiDockNodeC1Ej
0000000000026d20 T _ZN13ImGuiDockNodeC2Ej
0000000000026dd0 T _ZN13ImGuiDockNodeD1Ev
0000000000026dd0 T _ZN13ImGuiDockNodeD2Ev
0000000000000000 W _ZN13ImGuiViewportD1Ev
0000000000000000 W _ZN13ImGuiViewportD2Ev
0000000000000000 n _ZN13ImGuiViewportD5Ev
00000000000105a0 T _ZN14ImGuiTextIndex6appendEPKcii
0000000000024cc0 T _ZN15ImGuiPlatformIO21ClearPlatformHandlersEv
0000000000024d40 T _ZN15ImGuiPlatformIO21ClearRendererHandlersEv
00000000000070a0 T _ZN15ImGuiPlatformIOC1Ev
00000000000070a0 T _ZN15ImGuiPlatformIOC2Ev
0000000000000000 B _ZN15ImGuiTextBuffer11EmptyStringE
000000000000eb20 T _ZN15ImGuiTextBuffer6appendEPKcS1_
000000000000e960 t _ZN15ImGuiTextBuffer6appendEPKcS1_.constprop.0
000000000000f570 T _ZN15ImGuiTextBuffer7appendfEPKcz
000000000000f340 T _ZN15ImGuiTextBuffer8appendfvEPKcP13__va_list_tag
000000000000d110 T _ZN15ImGuiTextFilter4DrawEPKcf
000000000000ceb0 T _ZN15ImGuiTextFilter5BuildEv
000000000000d0a0 T _ZN15ImGuiTextFilterC1EPKc
000000000000d0a0 T _ZN15ImGuiTextFilterC2EPKc
0000000000000000 t _ZN15ImGuiTextFilterC2EPKc.cold
000000000000a0e0 T _ZN16ImGuiListClipper17SeekCursorForItemEi
0000000000011800 T _ZN16ImGuiListClipper19IncludeItemsByIndexEii
0000000000028f30 T _ZN16ImGuiListClipper3EndEv
000000000003dad0 T _ZN16ImGuiListClipper4StepEv
000000000002bb20 T _ZN16ImGuiListClipper5BeginEif
000000000000a0c0 T _ZN16ImGuiListClipperC1Ev
000000000000a0c0 T _ZN16ImGuiListClipperC2Ev
00000000000387d0 T _ZN16ImGuiListClipperD1Ev
00000000000387d0 T _ZN16ImGuiListClipperD2Ev
                 U _ZN16ImGuiMenuColumns6UpdateEfb
                 U _ZN18ImDrawListSplitter15ClearFreeMemoryEv
                 U _ZN18ImDrawListSplitter17SetCurrentChannelEP10ImDrawListi
                 U _ZN18ImDrawListSplitter5MergeEP10ImDrawList
                 U _ZN18ImDrawListSplitter5SplitEP10ImDrawListi
                 U _ZN19ImGuiInputTextStateC1Ev
                 U _ZN19ImGuiInputTextStateD1Ev
                 U _ZN20ImDrawListSharedData29SetCircleTessellationMaxErrorEf
                 U _ZN20ImDrawListSharedDataC1Ev
                 U _ZN20ImDrawListSharedDataD1Ev
0000000000000000 W _ZN20ImGuiKeyRoutingTableD1Ev
0000000000000000 W _ZN20ImGuiKeyRoutingTableD2Ev
0000000000000000 n _ZN20ImGuiKeyRoutingTableD5Ev
000000000004eff0 T _ZN5ImGui10BeginChildEPKcRK6ImVec2ii
000000000004f0a0 T _ZN5ImGui10BeginChildEjRK6ImVec2ii
                 U _ZN5ImGui10BeginComboEPKcS1_i
000000000001e2f0 T _ZN5ImGui10BeginGroupEv
0000000000053db0 T _ZN5ImGui10BeginPopupEPKci
                 U _ZN5ImGui10BeginTableEPKciiRK6ImVec2f
                 U _ZN5ImGui10BulletTextEPKcz
                 U _ZN5ImGui10EndColumnsEv
                 U _ZN5ImGui10EndMenuBarEv
000000000004bf60 T _ZN5ImGui10EndTooltipEv
0000000000001de0 t _ZN5ImGui10EndTooltipEv.part.0
000000000001a960 T _ZN5ImGui10GetKeyDataEP12ImGuiContext8ImGuiKey
00000000000019a0 t _ZN5ImGui10GetKeyDataEP12ImGuiContext8ImGuiKey.part.0
000000000001aa00 T _ZN5ImGui10GetKeyNameE8ImGuiKey
000000000001ed60 T _ZN5ImGui10GetScrollXEv
000000000001ed80 T _ZN5ImGui10GetScrollYEv
0000000000014be0 T _ZN5ImGui10GetVersionEv
0000000000025a40 T _ZN5ImGui10InitializeEv
0000000000000019 t _ZN5ImGui10InitializeEv.cold
000000000004d730 T _ZN5ImGui10LogButtonsEv
0000000000022820 T _ZN5ImGui10RenderTextE6ImVec2PKcS2_b
                 U _ZN5ImGui10SelectableEPKcbiRK6ImVec2
0000000000033420 T _ZN5ImGui10SetFocusIDEjP11ImGuiWindow
000000000001ede0 T _ZN5ImGui10SetScrollXEP11ImGuiWindowf
000000000001ee40 T _ZN5ImGui10SetScrollXEf
000000000001ee10 T _ZN5ImGui10SetScrollYEP11ImGuiWindowf
000000000001ee70 T _ZN5ImGui10SetScrollYEf
0000000000054550 T _ZN5ImGui10SetTooltipEPKcz
                 U _ZN5ImGui10TreeNodeExEPKciS1_z
                 U _ZN5ImGui10TreeNodeExEPKviPKcz
000000000003d310 T _ZN5ImGui11BeginDockedEP11ImGuiWindowPb
0000000000000154 t _ZN5ImGui11BeginDockedEP11ImGuiWindowPb.cold
                 U _ZN5ImGui11CloseButtonEjRK6ImVec2
000000000004a5b0 T _ZN5ImGui11EndDisabledEv
0000000000033800 T _ZN5ImGui11FocusWindowEP11ImGuiWindowi
000000000000a420 T _ZN5ImGui11GetColorU32ERK6ImVec4
000000000000a300 T _ZN5ImGui11GetColorU32Eif
000000000000a550 T _ZN5ImGui11GetColorU32Ejf
0000000000014ca0 T _ZN5ImGui11GetDrawDataEv
0000000000018ed0 T _ZN5ImGui11GetFontSizeEv
000000000001c260 T _ZN5ImGui11GetKeyOwnerE8ImGuiKey
000000000001bf50 T _ZN5ImGui11GetMousePosEv
                 U _ZN5ImGui11ImageWithBgE12ImTextureRefRK6ImVec2S3_S3_RK6ImVec4S6_
000000000000bae0 T _ZN5ImGui11IsClippedExERK6ImRectj
000000000001b940 T _ZN5ImGui11IsMouseDownEi
0000000000001a00 t _ZN5ImGui11IsMouseDownEi.part.0
000000000001b980 T _ZN5ImGui11IsMouseDownEij
000000000003cba0 T _ZN5ImGui11IsPopupOpenEPKci
000000000001f1e0 T _ZN5ImGui11IsPopupOpenEji
000000000001d440 T _ZN5ImGui11KeepAliveIDEj
0000000000023500 T _ZN5ImGui11LogToBufferEi
0000000000034640 T _ZN5ImGui11OpenPopupExEji
0000000000015160 T _ZN5ImGui11PopClipRectEv
000000000004a550 T _ZN5ImGui11PopItemFlagEv
0000000000001d80 t _ZN5ImGui11PopItemFlagEv.part.0
0000000000049020 T _ZN5ImGui11PopStyleVarEi
                 U _ZN5ImGui11RadioButtonEPKcb
000000000000aa00 T _ZN5ImGui11RenderFrameE6ImVec2S0_jbf
0000000000029080 T _ZN5ImGui11SetActiveIDEjP11ImGuiWindow
000000000001cac0 T _ZN5ImGui11SetKeyOwnerE8ImGuiKeyji
0000000000054340 T _ZN5ImGui11SetTooltipVEPKcP13__va_list_tag
                 U _ZN5ImGui11SmallButtonEPKc
                 U _ZN5ImGui11TableEndRowEP10ImGuiTable
                 U _ZN5ImGui11TextColoredERK6ImVec4PKcz
                 U _ZN5ImGui11TextWrappedEPKcz
000000000004e960 T _ZN5ImGui12BeginChildExEPKcjRK6ImVec2ii
0000000000052150 T _ZN5ImGui12BeginPopupExEji
0000000000053f60 T _ZN5ImGui12BeginTooltipEv
000000000001e060 T _ZN5ImGui12CalcItemSizeE6ImVec2ff
0000000000015330 T _ZN5ImGui12CalcTextSizeEPKcS1_bf
000000000001d750 T _ZN5ImGui12GetCursorPosEv
0000000000018eb0 T _ZN5ImGui12GetFontBakedEv
000000000000b810 T _ZN5ImGui12GetHoveredIDEv
0000000000017ee0 T _ZN5ImGui12GetWindowPosEv
00000000000165a0 T _ZN5ImGui12IsItemActiveEv
0000000000016890 T _ZN5ImGui12IsItemEditedEv
000000000001c9a0 T _ZN5ImGui12IsKeyPressedE8ImGuiKeyb
000000000001c4b0 T _ZN5ImGui12IsKeyPressedE8ImGuiKeyij
000000000001c890 t _ZN5ImGui12IsKeyPressedE8ImGuiKeyij.constprop.0
000000000004b180 T _ZN5ImGui12PopItemWidthEv
00000000000150e0 T _ZN5ImGui12PushClipRectERK6ImVec2S2_b
0000000000017420 T _ZN5ImGui12PushItemFlagEib
0000000000048dd0 T _ZN5ImGui12PushStyleVarEiRK6ImVec2
00000000000486e0 T _ZN5ImGui12PushStyleVarEif
                 U _ZN5ImGui12RenderBulletEP10ImDrawList6ImVec2j
000000000001ed30 T _ZN5ImGui12ScrollToItemEi
000000000001ed50 T _ZN5ImGui12ScrollToRectEP11ImGuiWindowRK6ImRecti
000000000001d7e0 T _ZN5ImGui12SetCursorPosERK6ImVec2
000000000000b7e0 T _ZN5ImGui12SetHoveredIDEj
000000000002a5d0 T _ZN5ImGui12SetNavWindowEP11ImGuiWindow
0000000000017f00 T _ZN5ImGui12SetWindowPosEP11ImGuiWindowRK6ImVec2i
0000000000001b20 t _ZN5ImGui12SetWindowPosEP11ImGuiWindowRK6ImVec2i.part.0
00000000000181c0 T _ZN5ImGui12SetWindowPosEPKcRK6ImVec2i
0000000000018060 T _ZN5ImGui12SetWindowPosERK6ImVec2i
                 U _ZN5ImGui12TabBarAddTabEP11ImGuiTabBariP11ImGuiWindow
000000000001c350 T _ZN5ImGui12TestKeyOwnerE8ImGuiKeyj
                 U _ZN5ImGui12TextDisabledEPKcz
00000000000175f0 T _ZN5ImGui13BeginDisabledEb
                 U _ZN5ImGui13BeginTabBarExEP11ImGuiTabBarRK6ImRecti
000000000001dfc0 T _ZN5ImGui13CalcItemWidthEv
                 U _ZN5ImGui13CheckboxFlagsEPKcPii
0000000000038910 T _ZN5ImGui13ClearActiveIDEv
000000000002a690 T _ZN5ImGui13ClearDragDropEv
0000000000040a30 T _ZN5ImGui13CreateContextEP11ImFontAtlas
000000000004f6a0 T _ZN5ImGui13DebugNodeFontEP6ImFont
000000000001a930 T _ZN5ImGui13FixupKeyChordEi
000000000001d780 T _ZN5ImGui13GetCursorPosXEv
000000000001d7b0 T _ZN5ImGui13GetCursorPosYEv
0000000000014d20 T _ZN5ImGui13GetFrameCountEv
000000000003b7f0 T _ZN5ImGui13GetIDWithSeedEPKcS1_j
000000000003b850 T _ZN5ImGui13GetIDWithSeedEij
0000000000014c60 T _ZN5ImGui13GetPlatformIOEP12ImGuiContext
0000000000014c40 T _ZN5ImGui13GetPlatformIOEv
0000000000001970 t _ZN5ImGui13GetPlatformIOEv.part.0
000000000001eda0 T _ZN5ImGui13GetScrollMaxXEv
000000000001edc0 T _ZN5ImGui13GetScrollMaxYEv
0000000000018300 T _ZN5ImGui13GetWindowSizeEv
0000000000016710 T _ZN5ImGui13IsItemClickedEi
00000000000166c0 T _ZN5ImGui13IsItemFocusedEv
000000000004a040 T _ZN5ImGui13IsItemHoveredEi
000000000000b990 t _ZN5ImGui13IsItemHoveredEi.constprop.0
0000000000016870 T _ZN5ImGui13IsItemVisibleEv
000000000001b7e0 T _ZN5ImGui13IsKeyReleasedE8ImGuiKey
000000000001c6c0 T _ZN5ImGui13IsKeyReleasedE8ImGuiKeyj
0000000000019730 T _ZN5ImGui13IsRectVisibleERK6ImVec2
00000000000197a0 T _ZN5ImGui13IsRectVisibleERK6ImVec2S2_
0000000000017db0 T _ZN5ImGui13IsWindowAboveEP11ImGuiWindowS1_
00000000000547e0 T _ZN5ImGui13ItemHoverableERK6ImRectji
000000000002d710 T _ZN5ImGui13NavInitWindowEP11ImGuiWindowb
000000000004aa70 T _ZN5ImGui13PopFocusScopeEv
00000000000470f0 T _ZN5ImGui13PopStyleColorEi
000000000001d9b0 T _ZN5ImGui13PushItemWidthEf
0000000000048930 T _ZN5ImGui13PushStyleVarXEif
0000000000048b80 T _ZN5ImGui13PushStyleVarYEif
                 U _ZN5ImGui13SeparatorTextEPKc
000000000001d820 T _ZN5ImGui13SetCursorPosXEf
000000000001d860 T _ZN5ImGui13SetCursorPosYEf
000000000002fe10 T _ZN5ImGui13SetWindowDockEP11ImGuiWindowji
0000000000018320 T _ZN5ImGui13SetWindowSizeEP11ImGuiWindowRK6ImVec2i
00000000000185f0 T _ZN5ImGui13SetWindowSizeEPKcRK6ImVec2i
0000000000018480 T _ZN5ImGui13SetWindowSizeERK6ImVec2i
00000000000513d0 T _ZN5ImGui13ShowFontAtlasEP11ImFontAtlas
000000000000c470 T _ZN5ImGui14AddContextHookEP12ImGuiContextPK16ImGuiContextHook
000000000004f0c0 T _ZN5ImGui14BeginTooltipExEii
                 U _ZN5ImGui14ButtonBehaviorERK6ImRectjPbS3_i
                 U _ZN5ImGui14CollapseButtonEjRK6ImVec2P13ImGuiDockNode
0000000000014af0 T _ZN5ImGui14DebugAllocHookEP19ImGuiDebugAllocInfoiPvm
                 U _ZN5ImGui14DebugNodeTableEP10ImGuiTable
0000000000049fd0 T _ZN5ImGui14DestroyContextEP12ImGuiContext
                 U _ZN5ImGui14EndMultiSelectEv
00000000000169b0 T _ZN5ImGui14FindWindowByIDEj
0000000000019800 T _ZN5ImGui14GetDefaultFontEv
000000000001e250 T _ZN5ImGui14GetFrameHeightEv
0000000000016970 T _ZN5ImGui14GetItemRectMaxEv
0000000000016950 T _ZN5ImGui14GetItemRectMinEv
000000000001c1e0 T _ZN5ImGui14GetMouseCursorEv
0000000000017ea0 T _ZN5ImGui14GetWindowWidthEv
000000000001c060 T _ZN5ImGui14IsAnyMouseDownEv
000000000001ba00 T _ZN5ImGui14IsMouseClickedEib
000000000001c780 T _ZN5ImGui14IsMouseClickedEiij
0000000000017e80 T _ZN5ImGui14IsWindowDockedEv
0000000000023450 T _ZN5ImGui14LogToClipboardEi
000000000000b830 T _ZN5ImGui14MarkItemEditedEj
000000000004a700 T _ZN5ImGui14PopTextWrapPosEv
0000000000018f10 T _ZN5ImGui14PushFocusScopeEj
000000000003b640 T _ZN5ImGui14PushOverrideIDEj
000000000000c960 T _ZN5ImGui14PushStyleColorEiRK6ImVec4
000000000000c230 T _ZN5ImGui14PushStyleColorEij
000000000001e590 T _ZN5ImGui14ScrollToRectExEP11ImGuiWindowRK6ImRecti
0000000000019fb0 T _ZN5ImGui14SetCurrentFontEP6ImFontff
0000000000001c90 t _ZN5ImGui14SetCurrentFontEP6ImFontff.part.0
0000000000050450 T _ZN5ImGui14SetItemTooltipEPKcz
000000000001c200 T _ZN5ImGui14SetMouseCursorEi
000000000001f040 T _ZN5ImGui14SetScrollHereXEf
000000000001f110 T _ZN5ImGui14SetScrollHereYEf
0000000000034070 T _ZN5ImGui14SetWindowFocusEPKc
00000000000396b0 T _ZN5ImGui14SetWindowFocusEv
                 U _ZN5ImGui14TabBarCloseTabEP11ImGuiTabBarP12ImGuiTabItem
0000000000052360 T _ZN5ImGui15BeginPopupModalEPKcPbi
000000000003ac30 T _ZN5ImGui15DebugHookIdInfoEjiPKvS1_
0000000000039db0 T _ZN5ImGui15DebugLocateItemEj
000000000004c4f0 T _ZN5ImGui15DebugNodeTabBarEP11ImGuiTabBarPKc
0000000000055340 T _ZN5ImGui15DebugNodeWindowEP11ImGuiWindowPKc
000000000004bf50 T _ZN5ImGui15EndErrorTooltipEv
0000000000016990 T _ZN5ImGui15GetItemRectSizeEv
000000000001aae0 T _ZN5ImGui15GetKeyChordNameEi
0000000000024d80 T _ZN5ImGui15GetMainViewportEv
0000000000001c30 t _ZN5ImGui15GetMainViewportEv.part.0
0000000000019710 T _ZN5ImGui15GetStateStorageEv
000000000000a590 T _ZN5ImGui15GetStyleVarInfoEi
00000000000018e0 t _ZN5ImGui15GetStyleVarInfoEi.part.0
0000000000017e60 T _ZN5ImGui15GetWindowDockIDEv
0000000000017ec0 T _ZN5ImGui15GetWindowHeightEv
0000000000016830 T _ZN5ImGui15IsAnyItemActiveEv
00000000000165d0 T _ZN5ImGui15IsItemActivatedEv
000000000001bee0 T _ZN5ImGui15IsMouseDraggingEif
000000000001c010 T _ZN5ImGui15IsMousePosValidEPK6ImVec2
00000000000019d0 t _ZN5ImGui15IsMousePosValidEPK6ImVec2.part.0
000000000001baf0 T _ZN5ImGui15IsMouseReleasedEi
0000000000001a30 t _ZN5ImGui15IsMouseReleasedEi.part.0
000000000001bb30 T _ZN5ImGui15IsMouseReleasedEij
0000000000017c70 T _ZN5ImGui15IsWindowChildOfEP11ImGuiWindowS1_bb
0000000000020370 T _ZN5ImGui15IsWindowFocusedEi
000000000004a780 T _ZN5ImGui15IsWindowHoveredEi
0000000000022620 T _ZN5ImGui15LogRenderedTextEPK6ImVec2PKcS4_
0000000000017ad0 T _ZN5ImGui15PushTextWrapPosEf
000000000000aeb0 T _ZN5ImGui15RenderNavCursorERK6ImRectji
                 U _ZN5ImGui15SeparatorTextExEjPKcS1_f
000000000001cec0 T _ZN5ImGui15SetItemKeyOwnerE8ImGuiKey
000000000001ce40 T _ZN5ImGui15SetItemKeyOwnerE8ImGuiKeyi
0000000000001a60 t _ZN5ImGui15SetItemKeyOwnerE8ImGuiKeyi.part.0
00000000000503e0 T _ZN5ImGui15SetItemTooltipVEPKcP13__va_list_tag
000000000000bb70 T _ZN5ImGui15SetLastItemDataEjiiRK6ImRect
                 U _ZN5ImGui15SetNextItemOpenEbi
00000000000196e0 T _ZN5ImGui15SetStateStorageEP12ImGuiStorage
                 U _ZN5ImGui15StyleColorsDarkEP10ImGuiStyle
                 U _ZN5ImGui15TabBarRemoveTabEP11ImGuiTabBarj
                 U _ZN5ImGui15TabItemCalcSizeEP11ImGuiWindow
                 U _ZN5ImGui15TableHeadersRowEv
                 U _ZN5ImGui15TableNextColumnEv
                 U _ZN5ImGui15TableSetBgColorEiji
                 U _ZN5ImGui15TextLinkOpenURLEPKcS1_
                 U _ZN5ImGui15TextUnformattedEPKcS1_
00000000000196c0 T _ZN5ImGui16ActivateItemByIDEj
0000000000054140 T _ZN5ImGui16BeginItemTooltipEv
0000000000052250 T _ZN5ImGui16BeginPopupMenuExEjPKci
000000000000b780 T _ZN5ImGui16CallContextHooksEP12ImGuiContext20ImGuiContextHookType
0000000000023c00 T _ZN5ImGui16ClearIniSettingsEv
0000000000054c30 T _ZN5ImGui16DebugBreakButtonEPKcS1_
0000000000028170 T _ZN5ImGui16DebugNodeColumnsEP15ImGuiOldColumns
0000000000050bc0 T _ZN5ImGui16DebugNodeStorageEP12ImGuiStoragePKc
000000000004d140 T _ZN5ImGui16DebugNodeTextureEP13ImTextureDataiPK15ImFontAtlasRect
0000000000024db0 T _ZN5ImGui16FindViewportByIDEj
0000000000016a30 T _ZN5ImGui16FindWindowByNameEPKc
0000000000014b80 T _ZN5ImGui16GetClipboardTextEv
0000000000016850 T _ZN5ImGui16IsAnyItemFocusedEv
0000000000016800 T _ZN5ImGui16IsAnyItemHoveredEv
0000000000021750 T _ZN5ImGui16IsDragDropActiveEv
0000000000014bb0 T _ZN5ImGui16SetClipboardTextEPKc
00000000000190d0 T _ZN5ImGui16SetNavFocusScopeEj
000000000001d990 T _ZN5ImGui16SetNextItemWidthEf
0000000000018ad0 T _ZN5ImGui16SetNextWindowPosERK6ImVec2iS2_
0000000000050f50 T _ZN5ImGui16ShowFontSelectorEPKc
                 U _ZN5ImGui16SplitterBehaviorERK6ImRectj9ImGuiAxisPfS4_ffffj
                 U _ZN5ImGui16TabBarGetTabNameEP11ImGuiTabBarP12ImGuiTabItem
                 U _ZN5ImGui16TabBarQueueFocusEP11ImGuiTabBarP12ImGuiTabItem
                 U _ZN5ImGui16TableSetupColumnEPKcifj
000000000001bf70 T _ZN5ImGui16TeleportMousePosERK6ImVec2
0000000000046c90 T _ZN5ImGui17BeginErrorTooltipEv
0000000000034c50 T _ZN5ImGui17CloseCurrentPopupEv
0000000000034300 T _ZN5ImGui17ClosePopupToLevelEib
0000000000039be0 T _ZN5ImGui17DebugDrawItemRectEj
0000000000055ea0 T _ZN5ImGui17DebugNodeDockNodeEP13ImGuiDockNodePKc
000000000003ebb0 T _ZN5ImGui17DebugNodeDrawListEP11ImGuiWindowP14ImGuiViewportPPK10ImDrawListPKc
000000000000015d t _ZN5ImGui17DebugNodeDrawListEP11ImGuiWindowP14ImGuiViewportPPK10ImDrawListPKc.cold
000000000003f5c0 T _ZN5ImGui17DebugNodeViewportEP14ImGuiViewportP
0000000000027e40 T _ZN5ImGui17DebugTextEncodingEPKc
000000000002ebe0 T _ZN5ImGui17DockBuilderFinishEj
000000000004c310 T _ZN5ImGui17EndDragDropSourceEv
000000000002a780 T _ZN5ImGui17EndDragDropTargetEv
0000000000001cc0 t _ZN5ImGui17EndDragDropTargetEv.part.0
000000000001f410 T _ZN5ImGui17FindBlockingModalEP11ImGuiWindow
000000000000b6b0 T _ZN5ImGui17GetCurrentContextEv
000000000001d8a0 T _ZN5ImGui17GetCursorStartPosEv
000000000001ae70 T _ZN5ImGui17GetKeyMagnitude2dE8ImGuiKeyS0_S0_S0_
000000000001c0a0 T _ZN5ImGui17GetMouseDragDeltaEif
000000000000a5b0 T _ZN5ImGui17GetStyleColorNameEi
000000000000a530 T _ZN5ImGui17GetStyleColorVec4Ei
000000000001e210 T _ZN5ImGui17GetTextLineHeightEv
0000000000018e20 T _ZN5ImGui17GetWindowDpiScaleEv
0000000000018df0 T _ZN5ImGui17GetWindowDrawListEv
0000000000018e40 T _ZN5ImGui17GetWindowViewportEv
0000000000016610 T _ZN5ImGui17IsItemDeactivatedEv
0000000000016790 T _ZN5ImGui17IsItemToggledOpenEv
000000000001cf00 T _ZN5ImGui17IsKeyChordPressedEi
000000000001cff0 T _ZN5ImGui17IsKeyChordPressedEiij
0000000000018980 T _ZN5ImGui17IsWindowAppearingEv
0000000000018960 T _ZN5ImGui17IsWindowCollapsedEv
0000000000019ae0 T _ZN5ImGui17RegisterFontAtlasEP11ImFontAtlas
000000000000b720 T _ZN5ImGui17RemoveContextHookEP12ImGuiContextj
000000000000ab90 T _ZN5ImGui17RenderFrameBorderE6ImVec2S0_f
000000000000b140 T _ZN5ImGui17RenderMouseCursorE6ImVec2fijjj
0000000000022ca0 T _ZN5ImGui17RenderTextClippedERK6ImVec2S2_PKcS4_PS1_S2_PK6ImRect
0000000000022a90 T _ZN5ImGui17RenderTextWrappedE6ImVec2PKcS2_f
000000000000b6c0 T _ZN5ImGui17SetCurrentContextEP12ImGuiContext
0000000000018b60 T _ZN5ImGui17SetNextWindowSizeERK6ImVec2i
000000000001eea0 T _ZN5ImGui17SetScrollFromPosXEP11ImGuiWindowff
0000000000001a90 t _ZN5ImGui17SetScrollFromPosXEP11ImGuiWindowff.part.0
000000000001ef60 T _ZN5ImGui17SetScrollFromPosXEff
000000000001ef00 T _ZN5ImGui17SetScrollFromPosYEP11ImGuiWindowff
0000000000001ac0 t _ZN5ImGui17SetScrollFromPosYEP11ImGuiWindowff.part.0
000000000001efd0 T _ZN5ImGui17SetScrollFromPosYEff
0000000000024f30 T _ZN5ImGui17SetWindowViewportEP11ImGuiWindowP14ImGuiViewportP
00000000000602f0 T _ZN5ImGui17ShowMetricsWindowEPb
                 U _ZN5ImGui17TabBarFindTabByIDEP11ImGuiTabBarj
                 U _ZN5ImGui17TabItemBackgroundEP10ImDrawListRK6ImRectij
0000000000029330 T _ZN5ImGui17UpdateInputEventsEb
00000000000237c0 T _ZN5ImGui18AddSettingsHandlerEPK20ImGuiSettingsHandler
0000000000052560 T _ZN5ImGui18BeginTooltipHiddenEv
0000000000039950 T _ZN5ImGui18DebugDrawCursorPosEj
00000000000287a0 T _ZN5ImGui18DebugNodeFontGlyphEP6ImFontPK11ImFontGlyph
00000000000601a0 T _ZN5ImGui18DockBuilderAddNodeEji
00000000000005fe t _ZN5ImGui18DockBuilderAddNodeEji.cold
0000000000026e40 T _ZN5ImGui18DockBuilderGetNodeEj
000000000001d700 T _ZN5ImGui18GetCursorScreenPosEv
0000000000022320 T _ZN5ImGui18GetDragDropPayloadEv
                 U _ZN5ImGui18InputTextMultilineEPKcPcmRK6ImVec2iPFiP26ImGuiInputTextCallbackDataEPv
0000000000022d70 T _ZN5ImGui18RenderTextEllipsisEP10ImDrawListRK6ImVec2S4_fPKcS6_PS3_
0000000000024e50 T _ZN5ImGui18SetCurrentViewportEP11ImGuiWindowP14ImGuiViewportP
000000000001d720 T _ZN5ImGui18SetCursorScreenPosERK6ImVec2
0000000000021770 T _ZN5ImGui18SetDragDropPayloadEPKcPKvmi
0000000000018d70 T _ZN5ImGui18SetNextWindowClassEPK16ImGuiWindowClass
0000000000020350 T _ZN5ImGui18SetNextWindowFocusEv
000000000002db60 T _ZN5ImGui18SetShortcutRoutingEiij
0000000000018820 T _ZN5ImGui18SetWindowCollapsedEP11ImGuiWindowbi
00000000000189a0 T _ZN5ImGui18SetWindowCollapsedEPKcbi
0000000000018910 T _ZN5ImGui18SetWindowCollapsedEbi
00000000000525a0 T _ZN5ImGui18ShowDebugLogWindowEPb
00000000000005d9 t _ZN5ImGui18ShowDebugLogWindowEPb.cold
                 U _ZN5ImGui18TabBarQueueReorderEP11ImGuiTabBarP12ImGuiTabItemi
0000000000056ab0 T _ZN5ImGui19BeginDragDropSourceEi
0000000000021db0 T _ZN5ImGui19BeginDragDropTargetEv
000000000000bba0 T _ZN5ImGui19CalcWrapWidthForPosERK6ImVec2f
0000000000030670 T _ZN5ImGui19ClearWindowSettingsEPKc
0000000000028140 T _ZN5ImGui19DebugBreakClearDataEv
00000000000329f0 T _ZN5ImGui19DockBuilderCopyNodeEjjP8ImVectorIjE
0000000000026250 T _ZN5ImGui19DockContextEndFrameEP12ImGuiContext
0000000000026190 T _ZN5ImGui19DockContextShutdownEP12ImGuiContext
0000000000015730 T _ZN5ImGui19FindHoveredWindowExERK6ImVec2bPP11ImGuiWindowS5_
000000000000a9c0 T _ZN5ImGui19FindRenderedTextEndEPKcS1_
0000000000023b50 T _ZN5ImGui19FindSettingsHandlerEPKc
000000000001ad30 T _ZN5ImGui19GetKeyPressedAmountE8ImGuiKeyff
000000000001bd80 T _ZN5ImGui19IsMouseHoveringRectERK6ImVec2S2_b
0000000000001f40 t _ZN5ImGui19IsMouseHoveringRectERK6ImVec2S2_b.constprop.0
0000000000019890 T _ZN5ImGui19RegisterUserTextureEP13ImTextureData
0000000000015410 T _ZN5ImGui19RenderTextClippedExEP10ImDrawListRK6ImVec2S4_PKcS6_PS3_S4_PK6ImRect
000000000001c190 T _ZN5ImGui19ResetMouseDragDeltaEi
000000000001ebb0 T _ZN5ImGui19SetItemDefaultFocusEv
0000000000020dd0 T _ZN5ImGui19SetNavCursorVisibleEb
000000000001d220 T _ZN5ImGui19SetNextItemShortcutEii
0000000000018d40 T _ZN5ImGui19SetNextWindowDockIDEji
0000000000018c60 T _ZN5ImGui19SetNextWindowScrollERK6ImVec2
000000000001b3e0 T _ZN5ImGui19TestShortcutRoutingEij
0000000000019cd0 T _ZN5ImGui19UnregisterFontAtlasEP11ImFontAtlas
0000000000009bf0 T _ZN5ImGui20ColorConvertHSVtoRGBEfffRfS0_S0_
0000000000009b30 T _ZN5ImGui20ColorConvertRGBtoHSVEfffRfS0_S0_
0000000000039a60 T _ZN5ImGui20DebugDrawLineExtentsEj
00000000000280e0 T _ZN5ImGui20DebugFlashStyleColorEi
0000000000055e60 T _ZN5ImGui20DebugNodeWindowsListEP8ImVectorIP11ImGuiWindowEPKc
0000000000055be0 t _ZN5ImGui20DebugNodeWindowsListEP8ImVectorIP11ImGuiWindowEPKc.part.0
000000000003ac10 T _ZN5ImGui20DebugStartItemPickerEv
0000000000031630 T _ZN5ImGui20DockBuilderSplitNodeEj8ImGuiDirfPjS1_
0000000000026460 T _ZN5ImGui20DockContextGenNodeIDEP12ImGuiContext
00000000000264e0 T _ZN5ImGui20DockContextQueueDockEP12ImGuiContextP11ImGuiWindowP13ImGuiDockNodeS3_8ImGuiDirfb
000000000001bd40 T _ZN5ImGui20GetMouseClickedCountEi
000000000001f310 T _ZN5ImGui20GetTopMostPopupModalEv
000000000001bc40 T _ZN5ImGui20IsMouseDoubleClickedEi
000000000001bcb0 T _ZN5ImGui20IsMouseDoubleClickedEij
0000000000021720 T _ZN5ImGui20IsWindowNavFocusableEP11ImGuiWindow
0000000000023790 T _ZN5ImGui20MarkIniSettingsDirtyEP11ImGuiWindow
0000000000023760 T _ZN5ImGui20MarkIniSettingsDirtyEv
0000000000021300 T _ZN5ImGui20NavMoveRequestCancelEv
0000000000020ff0 T _ZN5ImGui20NavMoveRequestSubmitE8ImGuiDirS0_ii
000000000004a420 T _ZN5ImGui20OpenPopupOnItemClickEPKci
000000000001db70 T _ZN5ImGui20PushMultiItemsWidthsEif
00000000000385d0 T _ZN5ImGui20SetKeyboardFocusHereEi
0000000000018d00 T _ZN5ImGui20SetNextWindowBgAlphaEf
0000000000018870 T _ZN5ImGui20SetWindowHitTestHoleEP11ImGuiWindowRK6ImVec2S4_
000000000002a7f0 T _ZN5ImGui21AcceptDragDropPayloadEPKci
0000000000053b90 T _ZN5ImGui21BeginPopupContextItemEPKci
0000000000053920 T _ZN5ImGui21BeginPopupContextVoidEPKci
0000000000034a50 T _ZN5ImGui21ClosePopupsOverWindowEP11ImGuiWindowb
000000000002ab00 T _ZN5ImGui21DestroyPlatformWindowEP14ImGuiViewportP
00000000000308e0 T _ZN5ImGui21DockBuilderDockWindowEPKcj
0000000000032880 T _ZN5ImGui21DockBuilderRemoveNodeEj
0000000000026ec0 T _ZN5ImGui21DockBuilderSetNodePosEj6ImVec2
0000000000032850 T _ZN5ImGui21DockContextClearNodesEP12ImGuiContextjb
0000000000031d70 t _ZN5ImGui21DockContextClearNodesEP12ImGuiContextjb.constprop.0
0000000000001d50 t _ZN5ImGui21DockContextClearNodesEP12ImGuiContextjb.part.0
0000000000025790 T _ZN5ImGui21DockContextInitializeEP12ImGuiContext
000000000005ff80 T _ZN5ImGui21DockSpaceOverViewportEjPK13ImGuiViewportiPK16ImGuiWindowClass
000000000000b6f0 T _ZN5ImGui21GetAllocatorFunctionsEPPFPvmS0_EPPFvS0_S0_EPS0_
0000000000014d40 T _ZN5ImGui21GetBackgroundDrawListEP13ImGuiViewport
000000000001e2a0 T _ZN5ImGui21GetContentRegionAvailEv
00000000000150c0 T _ZN5ImGui21GetDrawListSharedDataEv
0000000000014f00 T _ZN5ImGui21GetForegroundDrawListEP13ImGuiViewport
0000000000020e20 T _ZN5ImGui21NavHighlightActivatedEj
0000000000021340 T _ZN5ImGui21NavMoveRequestForwardE8ImGuiDirS0_ii
0000000000023a30 T _ZN5ImGui21RemoveSettingsHandlerEPKc
0000000000024300 T _ZN5ImGui21SaveIniSettingsToDiskEPKc
000000000000b6d0 T _ZN5ImGui21SetAllocatorFunctionsEPFPvmS0_EPFvS0_S0_ES0_
0000000000018d20 T _ZN5ImGui21SetNextWindowViewportEj
0000000000052ce0 T _ZN5ImGui21ShowIDStackToolWindowEPb
0000000000020a60 T _ZN5ImGui21StopMouseMovingWindowEv
0000000000019a10 T _ZN5ImGui21UnregisterUserTextureEP13ImTextureData
0000000000019de0 T _ZN5ImGui21UpdateCurrentFontSizeEf
000000000002ac00 T _ZN5ImGui21UpdatePlatformWindowsEv
0000000000050b80 T _ZN5ImGui22DebugLocateItemOnHoverEj
0000000000050820 t _ZN5ImGui22DebugLocateItemOnHoverEj.part.0
                 U _ZN5ImGui22DebugNodeTableSettingsEP18ImGuiTableSettings
0000000000031c10 T _ZN5ImGui22DestroyPlatformWindowsEv
0000000000026f50 T _ZN5ImGui22DockBuilderSetNodeSizeEj6ImVec2
000000000004bf90 T _ZN5ImGui22DockNodeEndAmendTabBarEv
0000000000020d60 T _ZN5ImGui22FindWindowDisplayIndexEP11ImGuiWindow
0000000000024580 T _ZN5ImGui22FindWindowSettingsByIDEj
0000000000018ef0 T _ZN5ImGui22GetFontTexUvWhitePixelEv
000000000001b0e0 T _ZN5ImGui22GetShortcutRoutingDataEi
000000000001aca0 T _ZN5ImGui22GetTypematicRepeatRateEiPfS0_
00000000000167b0 T _ZN5ImGui22IsItemToggledSelectionEv
0000000000025420 T _ZN5ImGui22ScaleWindowsInViewportEP14ImGuiViewportPf
0000000000018c80 T _ZN5ImGui22SetNextWindowCollapsedEbi
0000000000033d00 T _ZN5ImGui22StartMouseMovingWindowEP11ImGuiWindow
                 U _ZN5ImGui22TableGcCompactSettingsEv
                 U _ZN5ImGui23AddDrawListToDrawDataExEP10ImDrawDataP8ImVectorIP10ImDrawListES4_
0000000000053710 T _ZN5ImGui23BeginPopupContextWindowEPKci
0000000000020580 T _ZN5ImGui23BringWindowToFocusFrontEP11ImGuiWindow
0000000000034bc0 T _ZN5ImGui23ClosePopupsExceptModalsEv
0000000000009a30 T _ZN5ImGui23ColorConvertFloat4ToU32ERK6ImVec4
00000000000099d0 T _ZN5ImGui23ColorConvertU32ToFloat4Ej
00000000000243b0 T _ZN5ImGui23CreateNewWindowSettingsEPKc
0000000000050340 T _ZN5ImGui23DebugBreakButtonTooltipEbPKc
                 U _ZN5ImGui23DebugNodeInputTextStateEP19ImGuiInputTextState
000000000004a6a0 T _ZN5ImGui23DebugNodeWindowSettingsEP19ImGuiWindowSettings
00000000000263f0 T _ZN5ImGui23DockContextFindNodeByIDEP12ImGuiContextj
00000000000321d0 T _ZN5ImGui23DockContextRebuildNodesEP12ImGuiContext
000000000001d390 T _ZN5ImGui23ErrorRecoveryStoreStateEP23ImGuiErrorRecoveryState
                 U _ZN5ImGui23GetColumnOffsetFromNormEPK15ImGuiOldColumnsf
0000000000017130 T _ZN5ImGui23GetWindowResizeBorderIDEP11ImGuiWindow8ImGuiDir
0000000000017040 T _ZN5ImGui23GetWindowResizeCornerIDEP11ImGuiWindowi
                 U _ZN5ImGui23InputTextDeactivateHookEj
0000000000024050 T _ZN5ImGui23LoadIniSettingsFromDiskEPKc
0000000000024c80 T _ZN5ImGui23LocalizeRegisterEntriesEPK13ImGuiLocEntryi
0000000000024190 T _ZN5ImGui23SaveIniSettingsToMemoryEPm
000000000001cc70 T _ZN5ImGui23SetKeyOwnersForKeyChordEiji
00000000000168b0 T _ZN5ImGui23SetNextItemAllowOverlapEv
0000000000017320 T _ZN5ImGui23UpdateWindowSkipRefreshEP11ImGuiWindow
0000000000020b00 T _ZN5ImGui24BringWindowToDisplayBackEP11ImGuiWindow
00000000000288c0 T _ZN5ImGui24DebugNodePlatformMonitorEP20ImGuiPlatformMonitorPKci
0000000000032b80 T _ZN5ImGui24DockBuilderCopyDockSpaceEjjP8ImVectorIPKcE
0000000000000085 t _ZN5ImGui24DockBuilderCopyDockSpaceEjjP8ImVectorIPKcE.cold
0000000000053590 T _ZN5ImGui24DockNodeBeginAmendTabBarEP13ImGuiDockNode
0000000000021440 T _ZN5ImGui24GetNavTweakPressedAmountE9ImGuiAxis
000000000001be80 T _ZN5ImGui24IsMouseDragPastThresholdEif
000000000001bbb0 T _ZN5ImGui24IsMouseReleasedWithDelayEif
000000000000b8d0 T _ZN5ImGui24IsWindowContentHoverableEP11ImGuiWindowi
0000000000023200 T _ZN5ImGui24LogSetNextTextDecorationEPKcS1_
                 U _ZN5ImGui24RenderRectFilledWithHoleEP10ImDrawListRK6ImRectS4_jf
000000000001a1c0 T _ZN5ImGui24SetFontRasterizerDensityEf
0000000000018c30 T _ZN5ImGui24SetNextWindowContentSizeERK6ImVec2
0000000000021a60 T _ZN5ImGui25BeginDragDropTargetCustomERK6ImRectj
00000000000206b0 T _ZN5ImGui25BringWindowToDisplayFrontEP11ImGuiWindow
000000000000a230 T _ZN5ImGui25CalcClipRectVisibleItemsYERK6ImRectRK6ImVec2fPiS6_
000000000001ac20 T _ZN5ImGui25CalcTypematicRepeatAmountEffff
0000000000016b20 T _ZN5ImGui25CalcWindowNextAutoFitSizeEP11ImGuiWindow
                 U _ZN5ImGui25DebugNodeMultiSelectStateEP21ImGuiMultiSelectState
000000000001fbc0 T _ZN5ImGui25FindBestWindowPosForPopupEP11ImGuiWindow
000000000001e270 T _ZN5ImGui25GetFrameHeightWithSpacingEv
000000000001fa90 T _ZN5ImGui25GetPopupAllowedExtentRectEP11ImGuiWindow
0000000000023c80 T _ZN5ImGui25LoadIniSettingsFromMemoryEPKcm
000000000002cef0 T _ZN5ImGui25NavInitRequestApplyResultEv
000000000002d0c0 T _ZN5ImGui25NavMoveRequestApplyResultEv
00000000000213d0 T _ZN5ImGui25NavMoveRequestTryWrappingEP11ImGuiWindowi
0000000000020b90 T _ZN5ImGui26BringWindowToDisplayBehindEP11ImGuiWindowS1_
                 U _ZN5ImGui26DebugNodeTypingSelectStateEP22ImGuiTypingSelectState
00000000000279d0 T _ZN5ImGui26DebugRenderKeyboardPreviewEP10ImDrawList
0000000000026900 T _ZN5ImGui26DockContextQueueUndockNodeEP12ImGuiContextP13ImGuiDockNode
0000000000024c40 T _ZN5ImGui26FindWindowSettingsByWindowEP11ImGuiWindow
0000000000001d20 t _ZN5ImGui26FindWindowSettingsByWindowEP11ImGuiWindow.part.0
0000000000034170 T _ZN5ImGui26FocusTopMostWindowUnderOneEP11ImGuiWindowS1_P13ImGuiViewporti
0000000000025750 T _ZN5ImGui26GetViewportPlatformMonitorEP13ImGuiViewport
0000000000016660 T _ZN5ImGui26IsItemDeactivatedAfterEditEv
0000000000017d70 T _ZN5ImGui26IsWindowWithinBeginStackOfEP11ImGuiWindowS1_
00000000000221e0 T _ZN5ImGui26RenderDragDropTargetRectExEP10ImDrawListRK6ImRect
0000000000018dd0 T _ZN5ImGui26SetNextWindowRefreshPolicyEi
                 U _ZN5ImGui26TabItemLabelAndCloseButtonEP10ImDrawListRK6ImRecti6ImVec2PKcjjbPbS8_
0000000000024f70 T _ZN5ImGui26TranslateWindowsInViewportEP14ImGuiViewportPRK6ImVec2S4_S4_S4_
00000000000595c0 T _ZN5ImGui27BeginDockableDragDropSourceEP11ImGuiWindow
0000000000047e40 T _ZN5ImGui27BeginDockableDragDropTargetEP11ImGuiWindow
0000000000000564 t _ZN5ImGui27BeginDockableDragDropTargetEP11ImGuiWindow.cold
0000000000021c50 T _ZN5ImGui27BeginDragDropTargetViewportEP13ImGuiViewportPK6ImRect
00000000000179d0 T _ZN5ImGui27EndDisabledOverrideReenableEv
000000000001f4a0 T _ZN5ImGui27FindBestWindowPosForPopupExERK6ImVec2S2_P8ImGuiDirRK6ImRectS7_24ImGuiPopupPositionPolicy
00000000000021f0 t _ZN5ImGui27FindBestWindowPosForPopupExERK6ImVec2S2_P8ImGuiDirRK6ImRectS7_24ImGuiPopupPositionPolicy.constprop.0.isra.0
0000000000020e40 T _ZN5ImGui27NavClearPreferredPosForAxisE9ImGuiAxis
0000000000027340 T _ZN5ImGui28DebugRenderViewportThumbnailEP10ImDrawListP14ImGuiViewportPRK6ImRect
0000000000031840 T _ZN5ImGui28DockContextProcessUndockNodeEP12ImGuiContextP13ImGuiDockNode
0000000000026700 T _ZN5ImGui28DockContextQueueUndockWindowEP12ImGuiContextP11ImGuiWindow
0000000000024e00 T _ZN5ImGui28FindViewportByPlatformHandleEPv
000000000001e230 T _ZN5ImGui28GetTextLineHeightWithSpacingEv
0000000000027310 T _ZN5ImGui28GetWindowAlwaysWantOwnTabBarEP11ImGuiWindow
0000000000020fc0 T _ZN5ImGui28NavMoveRequestButNoResultYetEv
0000000000025660 T _ZN5ImGui28RenderPlatformWindowsDefaultEPvS0_
0000000000020df0 T _ZN5ImGui28SetNavCursorVisibleAfterMoveEv
000000000001c240 T _ZN5ImGui28SetNextFrameWantCaptureMouseEb
0000000000018be0 T _ZN5ImGui28SetNextWindowSizeConstraintsERK6ImVec2S2_PFvP21ImGuiSizeCallbackDataEPv
0000000000033df0 T _ZN5ImGui28StartMouseMovingWindowOrNodeEP11ImGuiWindowP13ImGuiDockNodeb
00000000000177c0 T _ZN5ImGui29BeginDisabledOverrideReenableEv
0000000000027020 T _ZN5ImGui29DockBuilderCopyWindowSettingsEPKcS1_
000000000000d190 T _ZN5ImGui29GcAwakeTransientWindowBuffersEP11ImGuiWindow
000000000000c810 T _ZN5ImGui29GcCompactTransientMiscBuffersEv
                 U _ZN5ImGui30CalcRoundingFlagsForRectInRectERK6ImRectS2_f
000000000001d240 T _ZN5ImGui30DebugCheckVersionAndDataLayoutEPKcmmmmmm
000000000004f2c0 T _ZN5ImGui30DebugNodeFontGlyphesForSrcMaskEP6ImFontP11ImFontBakedi
00000000000304e0 T _ZN5ImGui30DockContextProcessUndockWindowEP12ImGuiContextP11ImGuiWindowb
000000000004c3c0 T _ZN5ImGui30ErrorRecoveryTryToRecoverStateEPK23ImGuiErrorRecoveryState
000000000001f380 T _ZN5ImGui30GetTopMostAndVisiblePopupModalEv
0000000000021f00 T _ZN5ImGui30IsDragDropPayloadBeingAcceptedEv
                 U _ZN5ImGui30TableGcCompactTransientBuffersEP10ImGuiTable
                 U _ZN5ImGui30TableGcCompactTransientBuffersEP18ImGuiTableTempData
0000000000017220 T _ZN5ImGui30UpdateWindowParentAndRootLinksEP11ImGuiWindowiS1_
000000000002ff40 T _ZN5ImGui31DockBuilderRemoveNodeChildNodesEj
0000000000000070 t _ZN5ImGui31DockBuilderRemoveNodeChildNodesEj.cold
000000000000c000 T _ZN5ImGui31GcCompactTransientWindowBuffersEP11ImGuiWindow
0000000000021f30 T _ZN5ImGui31RenderDragDropTargetRectForItemERK6ImRect
00000000000168d0 T _ZN5ImGui31SetActiveIdUsingAllKeyboardKeysEv
0000000000001af0 t _ZN5ImGui31SetActiveIdUsingAllKeyboardKeysEv.part.0
000000000001c220 T _ZN5ImGui31SetNextFrameWantCaptureKeyboardEb
                 U _ZN5ImGui31TableSettingsAddSettingsHandlerEv
0000000000034d40 T _ZN5ImGui31UpdateMouseMovingWindowEndFrameEv
0000000000038a90 T _ZN5ImGui31UpdateMouseMovingWindowNewFrameEv
0000000000026b00 T _ZN5ImGui32DockContextCalcDropPosForDockingEP11ImGuiWindowP13ImGuiDockNodeS1_S3_8ImGuiDirbP6ImVec2
000000000005c6b0 T _ZN5ImGui32DockContextNewFrameUpdateDockingEP12ImGuiContext
000000000005c330 t _ZN5ImGui32DockContextNewFrameUpdateDockingEP12ImGuiContext.part.0
000000000001bfa0 T _ZN5ImGui32GetMousePosOnOpeningCurrentPopupEv
0000000000003910 T _ZN5ImGui33DockNodeWindowMenuHandler_DefaultEP12ImGuiContextP13ImGuiDockNodeP11ImGuiTabBar
0000000000021160 T _ZN5ImGui33NavMoveRequestResolveWithLastItemEP16ImGuiNavItemData
0000000000039dd0 T _ZN5ImGui34DebugLocateItemResolveWithLastItemEv
0000000000050d60 T _ZN5ImGui34DebugTextUnformattedWithLocateItemEPKcS1_
0000000000032480 T _ZN5ImGui34DockBuilderRemoveNodeDockedWindowsEjb
0000000000032310 T _ZN5ImGui34DockContextNewFrameUpdateUndockingEP12ImGuiContext
0000000000015b80 T _ZN5ImGui34UpdateHoveredWindowAndCaptureFlagsERK6ImVec2
000000000004b200 T _ZN5ImGui36ErrorRecoveryTryToRecoverWindowStateEPK23ImGuiErrorRecoveryState
0000000000021220 T _ZN5ImGui37NavMoveRequestResolveWithPastTreeNodeEP16ImGuiNavItemDataPK22ImGuiTreeNodeStackData
00000000000282a0 T _ZN5ImGui38DebugNodeDrawCmdShowMeshAndBoundingBoxEP10ImDrawListPKS0_PK9ImDrawCmdbb
00000000000563a0 T _ZN5ImGui38DebugNodeWindowsListByBeginStackParentEPP11ImGuiWindowiS1_
000000000004e5c0 T _ZN5ImGui38ErrorCheckEndFrameFinalizeErrorTooltipEv
0000000000020f80 T _ZN5ImGui39NavUpdateCurrentWindowIsScrollPushableXEv
000000000004b860 T _ZN5ImGui3EndEv
00000000000255c0 T _ZN5ImGui42FindHoveredViewportFromPlatformWindowStackERK6ImVec2
00000000000188f0 T _ZN5ImGui42SetWindowHiddenAndSkipItemsForCurrentFrameEP11ImGuiWindow
00000000000151d0 T _ZN5ImGui43FindBottomMostVisibleWindowWithinBeginStackEP11ImGuiWindow
                 U _ZN5ImGui48TabBarFindMostRecentlySelectedTabForActiveWindowEP11ImGuiTabBar
                 U _ZN5ImGui4TextEPKcz
000000000004ac90 T _ZN5ImGui51ErrorCheckUsingSetCursorPosToExtendParentBoundariesEv
0000000000040b20 T _ZN5ImGui5BeginEPKcPbi
                 U _ZN5ImGui5ComboEPKcPiPKS1_ii
                 U _ZN5ImGui5DummyERK6ImVec2
000000000003c840 T _ZN5ImGui5GetIDEPKc
000000000003c580 T _ZN5ImGui5GetIDEPKcS1_
000000000003b3a0 T _ZN5ImGui5GetIDEPKv
000000000003b620 T _ZN5ImGui5GetIDEi
0000000000014c10 T _ZN5ImGui5GetIOEP12ImGuiContext
0000000000014bf0 T _ZN5ImGui5GetIOEv
0000000000001940 t _ZN5ImGui5GetIOEv.part.0
                 U _ZN5ImGui5ImageE12ImTextureRefRK6ImVec2S3_S3_
000000000004ac40 T _ZN5ImGui5PopIDEv
0000000000001db0 t _ZN5ImGui5PopIDEv.part.0
                 U _ZN5ImGui5TextVEPKcP13__va_list_tag
                 U _ZN5ImGui6ButtonEPKcRK6ImVec2
000000000001d8d0 T _ZN5ImGui6IndentEf
000000000003c990 T _ZN5ImGui6PushIDEPKc
000000000003c620 T _ZN5ImGui6PushIDEPKcS1_
000000000003b210 T _ZN5ImGui6PushIDEPKv
000000000003b490 T _ZN5ImGui6PushIDEi
00000000000583b0 T _ZN5ImGui6RenderEv
0000000000018e90 T _ZN5ImGui7GetFontEv
0000000000014d00 T _ZN5ImGui7GetTimeEv
000000000003a0a0 T _ZN5ImGui7ItemAddERK6ImRectjPS1_i
0000000000022350 T _ZN5ImGui7LogTextEPKcz
000000000000f630 t _ZN5ImGui7LogTextEPKcz.constprop.0
000000000000bce0 T _ZN5ImGui7MemFreeEPv
000000000004ab20 T _ZN5ImGui7PopFontEv
                 U _ZN5ImGui7TreePopEv
                 U _ZN5ImGui8CheckboxEPKcPb
0000000000028ae0 T _ZN5ImGui8DebugLogEPKcz
000000000004bc80 T _ZN5ImGui8EndChildEv
                 U _ZN5ImGui8EndComboEv
0000000000056fe0 T _ZN5ImGui8EndFrameEv
000000000004ad40 T _ZN5ImGui8EndGroupEv
000000000004bff0 T _ZN5ImGui8EndPopupEv
                 U _ZN5ImGui8EndTableEv
0000000000046eb0 T _ZN5ImGui8ErrorLogEPKc
000000000000a2c0 T _ZN5ImGui8GetStyleEv
000000000001d470 T _ZN5ImGui8ItemSizeERK6ImVec2f
00000000000230f0 T _ZN5ImGui8LogBeginEii
0000000000022500 T _ZN5ImGui8LogTextVEPKcP13__va_list_tag
0000000000023220 T _ZN5ImGui8LogToTTYEi
000000000000bc10 T _ZN5ImGui8MemAllocEm
                 U _ZN5ImGui8MenuItemEPKcS1_bb
000000000005c6d0 T _ZN5ImGui8NewFrameEv
000000000001a3b0 T _ZN5ImGui8PushFontEP6ImFontf
000000000001d620 T _ZN5ImGui8SameLineEff
0000000000020ea0 T _ZN5ImGui8SetNavIDEj13ImGuiNavLayerjRK6ImRect
000000000002e2f0 T _ZN5ImGui8ShortcutEii
000000000002e0c0 T _ZN5ImGui8ShortcutEiij
0000000000049150 T _ZN5ImGui8ShutdownEv
                 U _ZN5ImGui8TreeNodeEPKc
                 U _ZN5ImGui8TreeNodeEPKcS1_z
                 U _ZN5ImGui8TreeNodeEPKvPKcz
                 U _ZN5ImGui8TreePushEPKc
000000000001d930 T _ZN5ImGui8UnindentEf
00000000000289a0 T _ZN5ImGui9DebugLogVEPKcP13__va_list_tag
000000000005f840 T _ZN5ImGui9DockSpaceEjRK6ImVec2iPK16ImGuiWindowClass
                 U _ZN5ImGui9DragFloatEPKcPffffS1_i
                 U _ZN5ImGui9EndTabBarEv
00000000000335c0 T _ZN5ImGui9FocusItemEv
0000000000016930 T _ZN5ImGui9GetItemIDEv
                 U _ZN5ImGui9InputTextEPKcPcmiPFiP26ImGuiInputTextCallbackDataEPv
000000000001b430 T _ZN5ImGui9IsKeyDownE8ImGuiKey
000000000001b560 T _ZN5ImGui9IsKeyDownE8ImGuiKeyj
0000000000006150 t _ZN5ImGui9IsKeyDownE8ImGuiKeyj.constprop.0
00000000000235b0 T _ZN5ImGui9LogFinishEv
00000000000232e0 T _ZN5ImGui9LogToFileEiPKc
000000000003c8d0 T _ZN5ImGui9OpenPopupEPKci
0000000000034a40 T _ZN5ImGui9OpenPopupEji
                 U _ZN5ImGui9ScrollbarE9ImGuiAxis
                 U _ZN5ImGui9SeparatorEv
                 U _ZN5ImGui9SliderIntEPKcPiiiS1_i
                 U _ZN5ImGui9TabItemExEP11ImGuiTabBarPKcPbiP11ImGuiWindow
0000000000003280 t _ZN5ImGuiL12NavScoreItemEP16ImGuiNavItemDataRK6ImRect.isra.0
0000000000059850 t _ZN5ImGuiL14DockNodeUpdateEP13ImGuiDockNode
000000000002d980 t _ZN5ImGuiL15NavRestoreLayerE13ImGuiNavLayer
0000000000038e70 t _ZN5ImGuiL16UpdateMouseWheelEv
000000000002bfb0 t _ZN5ImGuiL17AddUpdateViewportEP11ImGuiWindowjRK6ImVec2S4_i
000000000000004f t _ZN5ImGuiL17AddUpdateViewportEP11ImGuiWindowjRK6ImVec2S4_i.cold
0000000000001910 t _ZN5ImGuiL17DockNodeAddTabBarEP13ImGuiDockNode.part.0
000000000002e630 t _ZN5ImGuiL17DockNodeAddWindowEP13ImGuiDockNodeP11ImGuiWindowb
000000000002ed80 t _ZN5ImGuiL17DockNodeTreeMergeEP12ImGuiContextP13ImGuiDockNodeS3_
000000000002b040 t _ZN5ImGuiL18DockContextAddNodeEP12ImGuiContextj
000000000002ec00 t _ZN5ImGuiL19DockNodeMoveWindowsEP13ImGuiDockNodeS1_
000000000002f5e0 t _ZN5ImGuiL20DockNodeRemoveWindowEP13ImGuiDockNodeP11ImGuiWindowj
0000000000001c60 t _ZN5ImGuiL20FindWindowFocusIndexEP11ImGuiWindow.part.0
0000000000001850 t _ZN5ImGuiL20NavApplyItemToResultEP16ImGuiNavItemData
000000000000d530 t _ZN5ImGuiL20UpdateKeyboardInputsEv
000000000002c5d0 t _ZN5ImGuiL20WindowSelectViewportEP11ImGuiWindow
000000000002f390 t _ZN5ImGuiL21DockContextRemoveNodeEP12ImGuiContextP13ImGuiDockNodeb
0000000000030b70 t _ZN5ImGuiL22DockContextProcessDockEP12ImGuiContextP16ImGuiDockRequest
0000000000001820 t _ZN5ImGuiL22DockNodeMoveChildNodesEP13ImGuiDockNodeS1_.part.0
0000000000005ab0 t _ZN5ImGuiL22NavCalcPreferredRefPosEv
00000000000017e0 t _ZN5ImGuiL23NavUpdateAnyRequestFlagEv
00000000000017b0 t _ZN5ImGuiL23NavUpdateAnyRequestFlagEv.part.0
000000000003b960 t _ZN5ImGuiL23RenderWindowDecorationsEP11ImGuiWindowRK6ImRectbbiPKjf
0000000000001e10 t _ZN5ImGuiL24DockNodeCalcTabBarLayoutEPK13ImGuiDockNodeP6ImRectS4_P6ImVec2S6_.constprop.0
0000000000002650 t _ZN5ImGuiL24DockNodePreviewDockSetupEP11ImGuiWindowP13ImGuiDockNodeS1_S3_P20ImGuiDockPreviewDatabb
0000000000006280 t _ZN5ImGuiL24RenderWindowOuterBordersEP11ImGuiWindow
00000000000471b0 t _ZN5ImGuiL25DockNodePreviewDockRenderEP11ImGuiWindowP13ImGuiDockNodeS1_PK20ImGuiDockPreviewData
0000000000000700 t _ZN5ImGuiL25DockNodeTreeUpdatePosSizeEP13ImGuiDockNode6ImVec2S2_S1_
000000000004dd70 t _ZN5ImGuiL26DockNodeTreeUpdateSplitterEP13ImGuiDockNode
0000000000000595 t _ZN5ImGuiL26DockNodeTreeUpdateSplitterEP13ImGuiDockNode.cold
00000000000655b0 t _ZN5ImGuiL28DockSettingsHandler_ApplyAllEP12ImGuiContextP20ImGuiSettingsHandler
0000000000000609 t _ZN5ImGuiL28DockSettingsHandler_ApplyAllEP12ImGuiContextP20ImGuiSettingsHandler.cold
0000000000032230 t _ZN5ImGuiL28DockSettingsHandler_ClearAllEP12ImGuiContextP20ImGuiSettingsHandler
000000000000dd20 t _ZN5ImGuiL28DockSettingsHandler_ReadLineEP12ImGuiContextP20ImGuiSettingsHandlerPvPKc
00000000000016b0 t _ZN5ImGuiL28DockSettingsHandler_ReadOpenEP12ImGuiContextP20ImGuiSettingsHandlerPKc
00000000000132c0 t _ZN5ImGuiL28DockSettingsHandler_WriteAllEP12ImGuiContextP20ImGuiSettingsHandlerP15ImGuiTextBuffer
0000000000003d00 t _ZN5ImGuiL29UpdateViewportPlatformMonitorEP14ImGuiViewportP
0000000000001cf0 t _ZN5ImGuiL30DockNodeStartMouseMovingWindowEP13ImGuiDockNodeP11ImGuiWindow.part.0
000000000002fa20 t _ZN5ImGuiL30DockNodeUpdateFlagsAndCollapseEP13ImGuiDockNode
0000000000000be0 t _ZN5ImGuiL30ErrorCheckNewFrameSanityChecksEv
0000000000003e60 t _ZN5ImGuiL32DockNodeTreeFindFallbackLeafNodeEP13ImGuiDockNode
0000000000000510 t _ZN5ImGuiL32DockNodeTreeFindVisibleNodeByPosEP13ImGuiDockNode6ImVec2
000000000002e510 t _ZN5ImGuiL32DockSettingsRenameNodeReferencesEjj
000000000002eab0 t _ZN5ImGuiL33DockContextBuildAddWindowsToNodesEP12ImGuiContextj
000000000002b490 t _ZN5ImGuiL33DockContextBuildNodesFromSettingsEP12ImGuiContextP21ImGuiDockNodeSettingsi
0000000000004e10 t _ZN5ImGuiL33DockNodeUpdateHasCentralNodeChildEP13ImGuiDockNode
000000000000e300 t _ZN5ImGuiL34RenderDimmedBackgroundBehindWindowEP11ImGuiWindowj.part.0
0000000000020790 t _ZN5ImGuiL36UpdateTryMergeWindowIntoHostViewportEP11ImGuiWindowP14ImGuiViewportP
0000000000035070 t _ZN5ImGuiL9NavUpdateEv
                 U _ZN6ImFont10RenderCharEP10ImDrawListfRK6ImVec2jtPK6ImVec4
                 U _ZN6ImFont12GetFontBakedEff
                 U _ZN6ImFont13CalcTextSizeAEfffPKcS1_PS1_
                 U _ZN6ImFont13IsGlyphInFontEt
                 U _ZN6ImFont18IsGlyphRangeUnusedEjj
0000000000000000 W _ZN6ImPoolI10ImGuiTableED1Ev
0000000000000000 W _ZN6ImPoolI10ImGuiTableED2Ev
0000000000000000 n _ZN6ImPoolI10ImGuiTableED5Ev
0000000000000000 W _ZN6ImPoolI11ImGuiTabBarED1Ev
0000000000000000 W _ZN6ImPoolI11ImGuiTabBarED2Ev
0000000000000000 n _ZN6ImPoolI11ImGuiTabBarED5Ev
0000000000000000 W _ZN6ImPoolI21ImGuiMultiSelectStateED1Ev
0000000000000000 W _ZN6ImPoolI21ImGuiMultiSelectStateED2Ev
0000000000000000 n _ZN6ImPoolI21ImGuiMultiSelectStateED5Ev
0000000000000000 W _ZN6ImPoolI29ImGuiDockContextPruneNodeDataED1Ev
0000000000000000 W _ZN6ImPoolI29ImGuiDockContextPruneNodeDataED2Ev
0000000000000000 n _ZN6ImPoolI29ImGuiDockContextPruneNodeDataED5Ev
0000000000013f20 T _ZN7ImGuiIO11AddKeyEventE8ImGuiKeyb
0000000000010850 T _ZN7ImGuiIO13AddFocusEventEb
000000000000d3c0 T _ZN7ImGuiIO14ClearInputKeysEv
0000000000006f00 T _ZN7ImGuiIO15ClearInputMouseEv
0000000000011470 T _ZN7ImGuiIO16AddMousePosEventEff
0000000000006e00 T _ZN7ImGuiIO16ClearEventsQueueEv
0000000000010da0 T _ZN7ImGuiIO17AddInputCharacterEj
0000000000012d80 T _ZN7ImGuiIO17AddKeyAnalogEventE8ImGuiKeybf
00000000000112a0 T _ZN7ImGuiIO18AddMouseWheelEventEff
0000000000028ba0 T _ZN7ImGuiIO19AddMouseButtonEventEib
0000000000007060 T _ZN7ImGuiIO19AddMouseSourceEventE16ImGuiMouseSource
0000000000010b00 T _ZN7ImGuiIO21AddMouseViewportEventEj
0000000000007050 T _ZN7ImGuiIO21SetAppAcceptingEventsEb
0000000000006fd0 T _ZN7ImGuiIO21SetKeyEventNativeDataE8ImGuiKeyiii
0000000000010ff0 T _ZN7ImGuiIO22AddInputCharacterUTF16Et
000000000000ecf0 T _ZN7ImGuiIO22AddInputCharactersUTF8EPKc
0000000000006cc0 T _ZN7ImGuiIOC1Ev
0000000000006cc0 T _ZN7ImGuiIOC2Ev
0000000000000000 W _ZN8ImVectorI21ImGuiListClipperRangeE9push_backERKS0_
000000000000c140 t _ZN8ImVectorIP11ImGuiWindowE7reserveEi.part.0
0000000000000000 W _ZN8ImVectorIP11ImGuiWindowE9push_backERKS1_
0000000000000000 W _ZN8ImVectorIP14ImGuiViewportPED1Ev
0000000000000000 W _ZN8ImVectorIP14ImGuiViewportPED2Ev
0000000000000000 n _ZN8ImVectorIP14ImGuiViewportPED5Ev
0000000000000000 W _ZN8ImVectorIjE9push_backERKj
                 U _ZNK11ImFontAtlas13GetCustomRectEiP15ImFontAtlasRect
0000000000009f50 T _ZNK12ImGuiStorage10GetVoidPtrEj
0000000000009e00 T _ZNK12ImGuiStorage6GetIntEji
0000000000009e70 T _ZNK12ImGuiStorage7GetBoolEjb
0000000000009ee0 T _ZNK12ImGuiStorage8GetFloatEjf
0000000000009ff0 T _ZNK15ImGuiTextFilter10PassFilterEPKcS1_
000000000000cb60 T _ZNK15ImGuiTextFilter14ImGuiTextRange5splitEcP8ImVectorIS0_E
0000000000000440 r _ZZ18ImTextCharFromUtf8PjPKcS1_E4mins
0000000000000460 r _ZZ18ImTextCharFromUtf8PjPKcS1_E5masks
0000000000000420 r _ZZ18ImTextCharFromUtf8PjPKcS1_E6shiftc
0000000000000400 r _ZZ18ImTextCharFromUtf8PjPKcS1_E6shifte
0000000000000480 r _ZZ18ImTextCharFromUtf8PjPKcS1_E7lengths
0000000000000168 d _ZZN5ImGui17ShowMetricsWindowEPbE15root_nodes_only
0000000000000040 b _ZZN5ImGui17ShowMetricsWindowEPbE3buf
0000000000000020 b _ZZN5ImGui17ShowMetricsWindowEPbE9viewports
0000000000000610 t _ZZN5ImGui17ShowMetricsWindowEPbEN4Func26WindowComparerByBeginOrderEPKvS3_
0000000000004a90 t _ZZN5ImGui17ShowMetricsWindowEPbEN5Funcs12GetTableRectEP10ImGuiTableii
                 U __assert_fail
                 U __cxa_atexit
                 U __cxa_guard_acquire
                 U __cxa_guard_release
                 U __dso_handle
                 U __gxx_personality_v0
                 U __isoc23_sscanf
                 U __printf_chk
                 U __stack_chk_fail
                 U __vsnprintf_chk
                 U cosf
                 U execvp
                 U exit
                 U fclose
                 U fflush
                 U fmodf
                 U fopen
                 U fork
                 U fread
                 U free
                 U fseek
                 U ftell
                 U fwrite
                 U malloc
                 U memchr
                 U memcpy
                 U memmove
                 U memset
                 U qsort
                 U sqrtf
                 U stdout
                 U strcmp
                 U strlen
                 U strncmp
                 U strncpy
                 U waitpid

imgui_draw.cpp.o:
0000000000000000 r .LC0
0000000000000038 r .LC1
00000000000000b0 r .LC10
0000000000000a28 r .LC100
000000000000001c r .LC101
0000000000000a70 r .LC102
0000000000000ab8 r .LC103
0000000000000030 r .LC105
0000000000000040 r .LC106
0000000000000050 r .LC107
0000000000000060 r .LC108
0000000000000070 r .LC109
00000000000000f0 r .LC11
0000000000000080 r .LC110
0000000000000090 r .LC111
00000000000000a0 r .LC112
00000000000000b0 r .LC113
00000000000000c0 r .LC114
00000000000000d0 r .LC115
00000000000000e0 r .LC116
00000000000000f0 r .LC117
0000000000000100 r .LC118
0000000000000110 r .LC119
0000000000000140 r .LC12
0000000000000120 r .LC120
0000000000000130 r .LC121
0000000000000140 r .LC122
0000000000000150 r .LC123
0000000000000160 r .LC124
0000000000000170 r .LC125
0000000000000180 r .LC126
0000000000000190 r .LC127
00000000000001a0 r .LC128
00000000000001b0 r .LC129
0000000000000178 r .LC13
00000000000001c0 r .LC130
00000000000001d0 r .LC131
00000000000001e0 r .LC132
00000000000001f0 r .LC133
0000000000000200 r .LC134
0000000000000210 r .LC135
0000000000000220 r .LC136
0000000000000230 r .LC137
0000000000000240 r .LC138
0000000000000250 r .LC139
00000000000001a8 r .LC14
0000000000000260 r .LC140
0000000000000270 r .LC141
0000000000000280 r .LC142
0000000000000290 r .LC143
00000000000002a0 r .LC144
00000000000002b0 r .LC145
00000000000002c0 r .LC146
00000000000002d0 r .LC147
00000000000002e0 r .LC148
00000000000001e0 r .LC15
0000000000000060 r .LC150
00000000000002f0 r .LC151
0000000000000160 r .LC152
0000000000000120 r .LC153
0000000000000300 r .LC154
0000000000000310 r .LC155
0000000000000320 r .LC156
0000000000000330 r .LC157
0000000000000340 r .LC159
0000000000000010 r .LC16
0000000000000350 r .LC160
0000000000000360 r .LC161
0000000000000370 r .LC162
0000000000000380 r .LC163
0000000000000390 r .LC164
00000000000003a0 r .LC165
00000000000003b0 r .LC166
00000000000003c0 r .LC167
00000000000003d0 r .LC168
00000000000003e0 r .LC169
0000000000000208 r .LC17
00000000000003f0 r .LC170
0000000000000400 r .LC171
0000000000000410 r .LC172
0000000000000420 r .LC173
0000000000000430 r .LC174
0000000000000440 r .LC175
0000000000000450 r .LC176
0000000000000460 r .LC177
0000000000000470 r .LC178
0000000000000480 r .LC179
0000000000000028 r .LC18
0000000000000490 r .LC180
00000000000004a0 r .LC181
00000000000004b0 r .LC182
00000000000004c0 r .LC183
00000000000004d0 r .LC184
00000000000004e0 r .LC185
00000000000004f0 r .LC186
0000000000000500 r .LC187
0000000000000510 r .LC188
0000000000000520 r .LC189
0000000000000238 r .LC19
0000000000000530 r .LC190
0000000000000540 r .LC191
0000000000000550 r .LC192
0000000000000560 r .LC193
0000000000000570 r .LC194
0000000000000580 r .LC195
0000000000000300 r .LC196
0000000000000450 r .LC197
0000000000000460 r .LC198
0000000000000590 r .LC199
0000000000000000 r .LC2
0000000000000039 r .LC20
00000000000005a0 r .LC200
00000000000005b0 r .LC201
00000000000005c0 r .LC202
00000000000005d0 r .LC203
00000000000005e0 r .LC204
00000000000005f0 r .LC205
0000000000000600 r .LC206
0000000000000610 r .LC207
0000000000000620 r .LC208
0000000000000630 r .LC209
0000000000000278 r .LC21
0000000000000640 r .LC210
0000000000000650 r .LC211
0000000000000660 r .LC212
0000000000000670 r .LC213
0000000000000680 r .LC214
0000000000000690 r .LC215
00000000000006a0 r .LC216
00000000000006b0 r .LC217
00000000000006c0 r .LC218
00000000000006d0 r .LC219
00000000000002b0 r .LC22
00000000000006e0 r .LC220
00000000000006f0 r .LC221
0000000000000700 r .LC222
0000000000000710 r .LC223
0000000000000720 r .LC224
0000000000000730 r .LC225
0000000000000740 r .LC226
0000000000000750 r .LC227
0000000000000760 r .LC228
0000000000000770 r .LC229
000000000000003b r .LC23
000000000000020c r .LC231
000000000000019c r .LC233
00000000000005a0 r .LC234
00000000000005d0 r .LC235
0000000000000020 r .LC237
0000000000000024 r .LC238
0000000000000af0 r .LC239
00000000000002e8 r .LC24
000000000000026e r .LC240
0000000000000b20 r .LC241
0000000000000282 r .LC242
0000000000000028 r .LC243
0000000000000b60 r .LC244
0000000000000ba0 r .LC245
0000000000000293 r .LC246
0000000000000bc0 r .LC247
0000000000000c20 r .LC248
00000000000002b1 r .LC249
0000000000000320 r .LC25
0000000000000c60 r .LC250
0000000000000000 r .LC251
00000000000002c4 r .LC252
00000000000002d7 r .LC253
0000000000000c88 r .LC254
0000000000000cc0 r .LC255
0000000000000ce8 r .LC256
000000000000002c r .LC257
0000000000000d10 r .LC258
0000000000000d40 r .LC259
0000000000000358 r .LC26
0000000000000d70 r .LC260
0000000000000da0 r .LC261
0000000000000030 r .LC262
0000000000000034 r .LC263
0000000000000038 r .LC264
0000000000000780 r .LC265
000000000000003c r .LC266
0000000000000dd0 r .LC267
00000000000002f2 r .LC268
0000000000000e08 r .LC269
0000000000000044 r .LC27
0000000000000008 r .LC270
0000000000000790 r .LC271
0000000000000040 r .LC272
0000000000000044 r .LC273
0000000000000e48 r .LC274
0000000000000e78 r .LC275
0000000000000ed8 r .LC276
0000000000000f00 r .LC277
0000000000000030 r .LC278
0000000000000010 r .LC279
0000000000000053 r .LC28
0000000000000018 r .LC280
0000000000000f50 r .LC281
0000000000000f88 r .LC282
0000000000000fb8 r .LC283
0000000000000303 r .LC284
0000000000000ff0 r .LC286
0000000000000020 r .LC287
0000000000001030 r .LC289
000000000000005d r .LC29
0000000000001068 r .LC290
00000000000010f0 r .LC291
0000000000000316 r .LC292
0000000000001130 r .LC293
0000000000001168 r .LC294
0000000000001198 r .LC295
00000000000011f0 r .LC296
0000000000001268 r .LC297
00000000000012e0 r .LC298
0000000000001320 r .LC299
0000000000000000 r .LC3
0000000000000065 r .LC30
0000000000001398 r .LC300
00000000000013c8 r .LC301
00000000000013e8 r .LC302
0000000000000048 r .LC304
0000000000000290 r .LC305
000000000000032f r .LC306
0000000000000332 r .LC307
000000000000033c r .LC308
0000000000000347 r .LC309
000000000000006d r .LC31
0000000000000353 r .LC310
000000000000035f r .LC311
0000000000000363 r .LC312
000000000000036a r .LC313
0000000000001420 r .LC314
0000000000001458 r .LC315
00000000000007a0 r .LC316
00000000000007b0 r .LC317
0000000000000028 r .LC318
0000000000001480 r .LC319
0000000000000077 r .LC32
00000000000014a8 r .LC320
00000000000014e0 r .LC321
0000000000001540 r .LC322
00000000000015c0 r .LC323
00000000000007c0 r .LC324
00000000000007c0 r .LC325
00000000000007d0 r .LC326
00000000000007d0 r .LC327
000000000000004c r .LC329
00000000000003b8 r .LC33
00000000000007e0 r .LC330
00000000000007f0 r .LC331
00000000000015f0 r .LC332
0000000000001648 r .LC334
00000000000016a8 r .LC335
00000000000016e0 r .LC336
0000000000001708 r .LC337
0000000000001738 r .LC338
0000000000001768 r .LC339
0000000000000288 r .LC34
0000000000001798 r .LC340
00000000000017c8 r .LC341
0000000000001828 r .LC342
0000000000001880 r .LC343
0000000000000050 r .LC344
00000000000018f0 r .LC345
0000000000000371 r .LC346
0000000000001928 r .LC347
0000000000000375 r .LC348
0000000000001980 r .LC349
00000000000003e8 r .LC35
00000000000019b8 r .LC350
0000000000001a08 r .LC351
0000000000001a38 r .LC352
0000000000001a80 r .LC353
0000000000001ad0 r .LC354
0000000000001b00 r .LC355
0000000000001b40 r .LC356
0000000000000030 r .LC357
0000000000001bd0 r .LC358
0000000000001c08 r .LC359
0000000000000420 r .LC36
0000000000001c40 r .LC362
0000000000000391 r .LC363
0000000000001c88 r .LC364
0000000000001cc8 r .LC365
0000000000001d10 r .LC366
000000000000039a r .LC367
0000000000001d50 r .LC368
0000000000001d90 r .LC369
000000000000008c r .LC37
0000000000001df0 r .LC370
0000000000001e28 r .LC371
0000000000001e78 r .LC372
0000000000001eb8 r .LC373
00000000000003ae r .LC374
0000000000001ef0 r .LC375
0000000000001f38 r .LC376
0000000000001f60 r .LC377
0000000000001f88 r .LC378
0000000000001fb8 r .LC379
0000000000000478 r .LC38
0000000000001fd8 r .LC380
00000000000003b8 r .LC381
0000000000001ff8 r .LC382
0000000000002040 r .LC383
0000000000002078 r .LC384
00000000000003d4 r .LC385
00000000000003ec r .LC386
00000000000020c8 r .LC387
00000000000020f0 r .LC388
0000000000002128 r .LC389
00000000000004c8 r .LC39
00000000000003f1 r .LC390
0000000000002160 r .LC391
0000000000000054 r .LC392
0000000000002198 r .LC393
00000000000021d0 r .LC394
00000000000021f8 r .LC395
0000000000002230 r .LC396
0000000000002278 r .LC397
00000000000022b0 r .LC398
0000000000002300 r .LC399
0000000000000000 r .LC4
00000000000000a3 r .LC40
0000000000002338 r .LC400
0000000000002398 r .LC401
00000000000023e0 r .LC403
0000000000002418 r .LC404
0000000000002450 r .LC405
00000000000024e8 r .LC406
00000000000003f9 r .LC407
000000000000040e r .LC408
0000000000002540 r .LC409
00000000000000b2 r .LC41
0000000000002580 r .LC410
0000000000000423 r .LC411
0000000000000439 r .LC412
00000000000025d0 r .LC413
00000000000025f8 r .LC414
0000000000002650 r .LC415
0000000000002688 r .LC416
00000000000026d0 r .LC417
0000000000002728 r .LC418
0000000000002770 r .LC419
0000000000000510 r .LC42
00000000000027b0 r .LC420
0000000000000443 r .LC421
0000000000002800 r .LC422
0000000000002820 r .LC423
0000000000002858 r .LC424
0000000000000000 r .LC425
0000000000000460 r .LC426
0000000000002880 r .LC427
00000000000028b8 r .LC428
0000000000002928 r .LC429
00000000000000c5 r .LC43
0000000000002988 r .LC430
00000000000029f8 r .LC431
0000000000002a38 r .LC432
0000000000002a68 r .LC433
0000000000002ab0 r .LC434
0000000000002af0 r .LC435
0000000000002b28 r .LC436
0000000000002b88 r .LC437
0000000000002bb0 r .LC438
0000000000002be8 r .LC439
0000000000000540 r .LC44
0000000000002c20 r .LC440
0000000000002c50 r .LC441
000000000000046d r .LC442
0000000000002cb8 r .LC443
0000000000002cf8 r .LC444
0000000000000489 r .LC445
000000000000048c r .LC446
00000000000004a0 r .LC447
0000000000002d60 r .LC448
00000000000004ba r .LC449
00000000000000e2 r .LC45
0000000000000058 r .LC450
00000000000004bd r .LC452
0000000000002d88 r .LC453
0000000000002e00 r .LC454
0000000000002e50 r .LC455
0000000000002e80 r .LC456
00000000000004cd r .LC457
0000000000002eb8 r .LC458
0000000000002ee0 r .LC459
0000000000000578 r .LC46
0000000000002f28 r .LC460
0000000000002f78 r .LC461
0000000000002fb0 r .LC462
0000000000002fe8 r .LC463
0000000000003030 r .LC464
0000000000003068 r .LC465
00000000000004e4 r .LC466
00000000000030d8 r .LC467
0000000000003130 r .LC468
0000000000000500 r .LC469
00000000000000f6 r .LC47
0000000000000518 r .LC470
0000000000003180 r .LC471
0000000000000535 r .LC472
00000000000031e8 r .LC473
0000000000003228 r .LC474
0000000000003248 r .LC475
000000000000008c r .LC476
0000000000003268 r .LC477
00000000000032b0 r .LC478
0000000000003350 r .LC479
00000000000005e0 r .LC48
0000000000003388 r .LC480
000000000000053c r .LC481
0000000000000549 r .LC482
0000000000003408 r .LC483
0000000000000238 r .LC484
0000000000003438 r .LC485
000000000000055d r .LC486
0000000000003480 r .LC487
00000000000034c8 r .LC488
000000000000005c r .LC489
0000000000000600 r .LC49
00000000000034e8 r .LC490
0000000000003538 r .LC491
0000000000003570 r .LC492
00000000000035c8 r .LC493
0000000000003618 r .LC494
0000000000003640 r .LC495
0000000000003678 r .LC496
00000000000036c0 r .LC497
00000000000037c8 r .LC498
00000000000038e8 r .LC499
000000000000003c r .LC5
0000000000000114 r .LC50
0000000000003970 r .LC500
0000000000003a20 r .LC501
0000000000003a50 r .LC502
00000000000007a8 r .LC503
0000000000003ab0 r .LC504
0000000000003b48 r .LC505
0000000000003bc8 r .LC506
000000000000056c r .LC507
0000000000003c60 r .LC508
0000000000003ca0 r .LC509
0000000000000010 r .LC51
0000000000000582 r .LC510
0000000000003d10 r .LC515
0000000000003d48 r .LC516
0000000000003dd0 r .LC517
0000000000000038 r .LC519
0000000000000010 r .LC52
0000000000000040 r .LC520
0000000000000178 r .LC521
000000000000004c r .LC522
0000000000000048 r .LC523
0000000000000050 r .LC524
0000000000000038 r .LC525
0000000000003e18 r .LC526
0000000000000060 r .LC527
0000000000000064 r .LC528
0000000000000068 r .LC529
0000000000000004 r .LC53
000000000000006c r .LC530
0000000000000070 r .LC531
00000000000003b8 r .LC532
000000000000016c r .LC533
0000000000000074 r .LC534
0000000000000058 r .LC535
0000000000000078 r .LC536
0000000000000630 r .LC54
0000000000000125 r .LC55
0000000000000690 r .LC56
0000000000000132 r .LC57
000000000000013e r .LC58
00000000000006e8 r .LC59
0000000000000152 r .LC60
0000000000000161 r .LC61
0000000000000740 r .LC62
0000000000000169 r .LC63
0000000000000768 r .LC64
000000000000017b r .LC65
000000000000018a r .LC66
0000000000000020 r .LC67
000000000000019c r .LC68
00000000000001a4 r .LC69
0000000000000000 r .LC7
0000000000000008 r .LC70
00000000000001ac r .LC71
000000000000000c r .LC72
00000000000001c1 r .LC73
0000000000000010 r .LC74
00000000000007a0 r .LC75
0000000000000014 r .LC76
00000000000007d0 r .LC77
00000000000001d5 r .LC78
00000000000001f0 r .LC79
0000000000000030 r .LC8
0000000000000820 r .LC80
000000000000020b r .LC81
0000000000000868 r .LC82
00000000000008c0 r .LC83
0000000000000229 r .LC84
000000000000022e r .LC85
0000000000000233 r .LC86
0000000000000238 r .LC87
000000000000023d r .LC88
0000000000000242 r .LC89
0000000000000080 r .LC9
0000000000000247 r .LC90
000000000000024c r .LC91
0000000000000251 r .LC92
0000000000000256 r .LC93
0000000000000920 r .LC94
0000000000000980 r .LC95
00000000000009e8 r .LC96
000000000000025b r .LC97
0000000000000018 r .LC98
0000000000000000 V DW.ref.__gxx_personality_v0
                 U GImGui
                 U _Unwind_Resume
                 U _Z10ImHashDataPKvmj
                 U _Z14ImFormatStringPcmPKcz
000000000000c940 T _Z17ImBezierCubicCalcRK6ImVec2S1_S1_S1_f
                 U _Z18ImAlphaBlendColorsjj
                 U _Z18ImFileLoadToMemoryPKcS0_Pmi
                 U _Z18ImTextCharFromUtf8PjPKcS1_
000000000001c360 T _Z19ImFontAtlasBakedAddP11ImFontAtlasP6ImFontffj
0000000000015940 T _Z19ImFontAtlasPackInitP11ImFontAtlas
0000000000019090 T _Z20ImFontAtlasBuildInitP11ImFontAtlas
000000000001f4c0 T _Z20ImFontAtlasBuildMainP11ImFontAtlas
0000000000020260 T _Z20ImFontCalcTextSizeExP6ImFontfffPKcS2_S2_PS2_P6ImVec2i
00000000000000e9 t _Z20ImFontCalcTextSizeExP6ImFontfffPKcS2_S2_PS2_P6ImVec2i.cold
000000000000c9c0 T _Z21ImBezierQuadraticCalcRK6ImVec2S1_S1_f
000000000001eec0 T _Z21ImFontAtlasBakedGetIdjff
000000000001a500 T _Z21ImFontAtlasBuildClearP11ImFontAtlas
0000000000015520 T _Z21ImFontAtlasTextureAddP11ImFontAtlasii
0000000000018300 T _Z22ImFontAtlasPackAddRectP11ImFontAtlasiiP20ImFontAtlasRectEntry
0000000000017190 T _Z22ImFontAtlasPackGetRectP11ImFontAtlasi
0000000000018020 T _Z22ImFontAtlasTextureGrowP11ImFontAtlasii
0000000000015da0 T _Z23ImFontAtlasBakedDiscardP11ImFontAtlasP6ImFontP11ImFontBaked
00000000000162c0 T _Z23ImFontAtlasBuildDestroyP11ImFontAtlas
                 U _Z23ImTriangleContainsPointRK6ImVec2S1_S1_S1_
000000000001f120 T _Z24ImFontAtlasBakedGetOrAddP11ImFontAtlasP6ImFontff
00000000000179b0 T _Z24ImFontAtlasTextureRepackP11ImFontAtlasii
00000000000000b2 t _Z24ImFontAtlasTextureRepackP11ImFontAtlasii.cold
0000000000014bb0 T _Z25ImFontAtlasFontInitOutputP11ImFontAtlasP6ImFont
0000000000014c50 T _Z25ImFontAtlasFontSourceInitP11ImFontAtlasP12ImFontConfig
0000000000018200 T _Z25ImFontAtlasTextureCompactP11ImFontAtlas
000000000001f5c0 T _Z25ImFontAtlasUpdateNewFrameP11ImFontAtlasib
0000000000015ab0 T _Z26ImFontAtlasPackDiscardRectP11ImFontAtlasi
000000000001ad00 T _Z26ImFontAtlasPackGetRectSafeP11ImFontAtlasi
0000000000012d10 T _Z26ImTextureDataGetFormatName15ImTextureFormat
0000000000012ca0 T _Z26ImTextureDataGetStatusName15ImTextureStatus
0000000000015fe0 T _Z27ImFontAtlasFontDiscardBakesP11ImFontAtlasP6ImFonti
0000000000013f10 T _Z27ImFontAtlasTextureBlockCopyP13ImTextureDataiiS0_iiii
0000000000013d90 T _Z27ImFontAtlasTextureBlockFillP13ImTextureDataiiiij
000000000001aaf0 T _Z27ImFontAtlasTextureMakeSpaceP11ImFontAtlas
000000000001b6f0 T _Z28ImFontAtlasBakedAddFontGlyphP11ImFontAtlasP11ImFontBakedP12ImFontConfigPK11ImFontGlyph
00000000000170d0 T _Z28ImFontAtlasBuildDiscardBakesP11ImFontAtlasi
0000000000016880 T _Z28ImFontAtlasFontDestroyOutputP11ImFontAtlasP6ImFont
000000000001fc50 T _Z28ImFontCalcWordWrapPositionExP6ImFontfPKcS2_fi
00000000000000de t _Z28ImFontCalcWordWrapPositionExP6ImFontfPKcS2_fi.cold
                 U _Z28ImTextCountUtf8BytesFromCharPKcS0_
0000000000014420 T _Z30ImFontAtlasBuildUpdatePointersP11ImFontAtlas
0000000000016c00 T _Z30ImFontAtlasFontSourceAddToFontP11ImFontAtlasP6ImFontP12ImFontConfig
0000000000012f80 T _Z30ImFontAtlasTextureBlockConvertPKh15ImTextureFormatiPhS1_iii
0000000000014f60 T _Z31ImFontAtlasBakedGetClosestMatchP11ImFontAtlasP6ImFontff
0000000000016910 T _Z31ImFontAtlasBuildSetupFontLoaderP11ImFontAtlasPK12ImFontLoader
000000000001fbf0 T _Z31ImTextCalcWordWrapNextLineStartPKcS0_i
0000000000015180 T _Z32ImFontAtlasAddDrawListSharedDataP11ImFontAtlasP20ImDrawListSharedData
0000000000015c90 T _Z32ImFontAtlasBakedDiscardFontGlyphP11ImFontAtlasP6ImFontP11ImFontBakedP11ImFontGlyph
0000000000014c90 T _Z32ImFontAtlasFontDestroySourceDataP11ImFontAtlasP12ImFontConfig
00000000000172a0 T _Z32ImFontAtlasGetMouseCursorTexDataP11ImFontAtlasiP6ImVec2S2_S2_S2_
00000000000156d0 T _Z33ImFontAtlasTextureGetSizeEstimateP11ImFontAtlas
000000000001cc20 T _Z34ImFontAtlasBakedSetFontGlyphBitmapP11ImFontAtlasP11ImFontBakedP12ImFontConfigP11ImFontGlyphP13ImTextureRectPKh15ImTextureFormati
000000000001ade0 T _Z34ImFontAtlasDebugLogTextureRequestsP11ImFontAtlas
0000000000013d60 T _Z34ImFontAtlasTextureBlockPostProcessP26ImFontAtlasPostProcessData
0000000000014120 T _Z34ImFontAtlasTextureBlockQueueUploadP11ImFontAtlasP13ImTextureDataiiii
0000000000015360 T _Z34ImFontAtlasUpdateDrawListsTexturesP11ImFontAtlas12ImTextureRefS1_
0000000000015290 T _Z35ImFontAtlasRemoveDrawListSharedDataP11ImFontAtlasP20ImDrawListSharedData
0000000000012c70 T _Z35ImTextureDataGetFormatBytesPerPixel15ImTextureFormat
0000000000000900 t _Z35ImTextureDataGetFormatBytesPerPixel15ImTextureFormat.part.0
00000000000143c0 T _Z36ImFontAtlasBuildGetOversampleFactorsP12ImFontConfigP11ImFontBakedPiS3_
00000000000154d0 T _Z36ImFontAtlasUpdateDrawListsSharedDataP11ImFontAtlas
000000000001bba0 T _Z37ImFontAtlasBakedAddFontGlyphAdvancedXP11ImFontAtlasP11ImFontBakedP12ImFontConfigtf
0000000000014570 T _Z38ImFontAtlasBuildRenderBitmapFromStringP11ImFontAtlasiiiiPKcc
00000000000017a0 t _Z38ImFontAtlasBuildRenderBitmapFromStringP11ImFontAtlasiiiiPKcc.constprop.0.isra.0
0000000000014cd0 T _Z38ImFontAtlasBuildSetupFontSpecialGlyphsP11ImFontAtlasP6ImFontP12ImFontConfig
000000000001af90 T _Z38ImFontAtlasGetFontLoaderForStbTruetypev
00000000000136b0 T _Z42ImFontAtlasTextureBlockPostProcessMultiplyP26ImFontAtlasPostProcessDataf
000000000001f2d0 T _Z43ImFontAtlasBuildLegacyPreloadAllGlyphRangesP11ImFontAtlas
                 U _Z8ImMemdupPKvm
0000000000000020 b _ZGVZ38ImFontAtlasGetFontLoaderForStbTruetypevE6loader
0000000000000870 t _ZL10stb__matchPKhj.part.0
0000000000004280 t _ZL14stb_decompressPhPKhj.isra.0
00000000000008d0 t _ZL14stbtt__buf_getP10stbtt__bufi.part.0
0000000000003970 t _ZL14stbtt__cff_intP10stbtt__buf
00000000000008a0 t _ZL15stbtt__buf_seekP10stbtt__bufi.part.0
0000000000004f20 t _ZL15stbtt__dict_getP10stbtt__bufi
00000000000051e0 t _ZL16stbtt__get_subrs10stbtt__bufS_
0000000000000008 b _ZL17stb__barrier_in_b
0000000000000020 t _ZL17stbtt__find_tablePhjPKc
0000000000000810 t _ZL18FixRectCornerFlagsi.part.0
0000000000000010 b _ZL18stb__barrier_out_b
0000000000000018 b _ZL18stb__barrier_out_e
00000000000006e0 t _ZL18stbtt__close_shapeP12stbtt_vertexiiiiiiiii
00000000000006b0 t _ZL19rect_height_comparePKvS0_
0000000000000000 t _ZL19rect_original_orderPKvS0_
0000000000000280 t _ZL20stbtt__GetGlyfOffsetPK14stbtt_fontinfoi
0000000000001410 t _ZL20stbtt__cff_get_indexP10stbtt__buf
00000000000015d0 t _ZL20stbtt__cff_index_get10stbtt__bufi
0000000000005070 t _ZL20stbtt__dict_get_intsP10stbtt__bufiiPj.constprop.0
00000000000036c0 t _ZL21stbtt__csctx_rline_toP12stbtt__csctxff
0000000000003b10 t _ZL21stbtt__csctx_rmove_toP12stbtt__csctxff
0000000000005d90 t _ZL21stbtt__run_charstringPK14stbtt_fontinfoiP12stbtt__csctx
00000000000070c0 t _ZL22stbtt__GetGlyphShapeTTPK14stbtt_fontinfoiPP12stbtt_vertex
0000000000000470 t _ZL22stbtt__tesselate_cubicP12stbtt__pointPifffffffffi
0000000000000da0 t _ZL22stbtt__tesselate_curveP12stbtt__pointPifffffffi.isra.0
00000000000037a0 t _ZL23stbtt__csctx_rccurve_toP12stbtt__csctxffffff
0000000000001300 t _ZL25stbrp__skyline_find_min_yP13stbrp_contextP10stbrp_nodeiiPi.isra.0
0000000000000960 t _ZL26ImFontBaked_BuildGrowIndexP11ImFontBakedi
000000000001bce0 t _ZL26ImFontBaked_BuildLoadGlyphP11ImFontBakedtPf
0000000000000b30 t _ZL26stbtt__handle_clipped_edgePfiP18stbtt__active_edgeffff.part.0.isra.0
00000000000000b0 t _ZL27stbtt__sort_edges_quicksortP11stbtt__edgei
0000000000001e40 t _ZL29stbtt__rasterize_sorted_edgesP13stbtt__bitmapP11stbtt__edgeiiiiPv.constprop.0.isra.0
0000000000003fc0 t _ZL31PathBezierCubicCurveToCasteljauP8ImVectorI6ImVec2Efffffffffi
00000000000000e0 r _ZL32proggy_clean_ttf_compressed_data
00000000000055d0 t _ZL33ImGui_ImplStbTrueType_FontSrcInitP11ImFontAtlasP12ImFontConfig
0000000000002660 r _ZL34FONT_ATLAS_DEFAULT_TEX_CURSOR_DATA
0000000000002780 r _ZL34FONT_ATLAS_DEFAULT_TEX_DATA_PIXELS
0000000000018e50 t _ZL34ImFontAtlasBuildUpdateBasicTexDataP11ImFontAtlas
00000000000173e0 t _ZL34ImFontAtlasBuildUpdateLinesTexDataP11ImFontAtlas.part.0
0000000000000360 t _ZL35ImGui_ImplStbTrueType_FontBakedInitP11ImFontAtlasP12ImFontConfigP11ImFontBakedPv
0000000000003d40 t _ZL35PathBezierQuadraticCurveToCasteljauP8ImVectorI6ImVec2Efffffffi
0000000000000330 t _ZL36ImGui_ImplStbTrueType_FontSrcDestroyP11ImFontAtlasP12ImFontConfig
000000000001c9c0 t _ZL38ImFontAtlasBuildSetupFontBakedFallbackP11ImFontBaked
000000000001cdf0 t _ZL40ImGui_ImplStbTrueType_FontBakedLoadGlyphP11ImFontAtlasP12ImFontConfigP11ImFontBakedPvtP11ImFontGlyphPf
00000000000012b0 t _ZL42ImGui_ImplStbTrueType_FontSrcContainsGlyphP11ImFontAtlasP12ImFontConfigt
0000000000000840 t _ZL8stb__litPKhj.part.0
0000000000000000 b _ZL9stb__dout
0000000000012200 T _ZN10ImDrawData11AddDrawListEP10ImDrawList
00000000000124c0 T _ZN10ImDrawData14ScaleClipRectsERK6ImVec2
0000000000012280 T _ZN10ImDrawData17DeIndexAllBuffersEv
0000000000000090 t _ZN10ImDrawData17DeIndexAllBuffersEv.cold
0000000000011f20 T _ZN10ImDrawData5ClearEv
0000000000008b20 T _ZN10ImDrawList10AddDrawCmdEv
000000000000f270 T _ZN10ImDrawList10AddEllipseERK6ImVec2S2_jfif
0000000000009880 T _ZN10ImDrawList10PopTextureEv
0000000000000930 t _ZN10ImDrawList10PopTextureEv.part.0
000000000000b3a0 T _ZN10ImDrawList10PrimQuadUVERK6ImVec2S2_S2_S2_S2_S2_S2_S2_j
000000000000b2d0 T _ZN10ImDrawList10PrimRectUVERK6ImVec2S2_S2_S2_j
0000000000008cf0 T _ZN10ImDrawList11AddCallbackEPFvPKS_PK9ImDrawCmdEPvm
000000000000b460 T _ZN10ImDrawList11AddPolylineEPK6ImVec2ijif
0000000000009ca0 t _ZN10ImDrawList11AddPolylineEPK6ImVec2ijif.part.0
000000000000e8a0 T _ZN10ImDrawList11AddTriangleERK6ImVec2S2_S2_jf
0000000000009540 T _ZN10ImDrawList11PopClipRectEv
0000000000009aa0 T _ZN10ImDrawList11PrimReserveEii
0000000000009690 T _ZN10ImDrawList11PushTextureE12ImTextureRef
000000000000b990 T _ZN10ImDrawList11_PathArcToNERK6ImVec2fffi
0000000000009980 T _ZN10ImDrawList11_SetTextureE12ImTextureRef
000000000000fa10 T _ZN10ImDrawList12AddImageQuadE12ImTextureRefRK6ImVec2S3_S3_S3_S3_S3_S3_S3_j
0000000000009290 T _ZN10ImDrawList12PushClipRectERK6ImVec2S2_b
000000000000f140 T _ZN10ImDrawList13AddNgonFilledERK6ImVec2fji
000000000000e5a0 T _ZN10ImDrawList13AddQuadFilledERK6ImVec2S2_S2_S2_j
000000000000dfc0 T _ZN10ImDrawList13AddRectFilledERK6ImVec2S2_jfi
000000000000c3d0 T _ZN10ImDrawList13PathArcToFastERK6ImVec2fii
000000000000b190 T _ZN10ImDrawList13PrimUnreserveEii
000000000000f5c0 T _ZN10ImDrawList14AddBezierCubicERK6ImVec2S2_S2_S2_jfi
000000000000ef10 T _ZN10ImDrawList15AddCircleFilledERK6ImVec2fji
0000000000012910 T _ZN10ImDrawList15AddImageRoundedE12ImTextureRefRK6ImVec2S3_S3_S3_jfi
000000000000f420 T _ZN10ImDrawList16AddEllipseFilledERK6ImVec2S2_jfi
0000000000010fa0 T _ZN10ImDrawList16_ClearFreeMemoryEv
000000000000b4c0 T _ZN10ImDrawList16_PathArcToFastExERK6ImVec2fiii
000000000000eb20 T _ZN10ImDrawList17AddTriangleFilledERK6ImVec2S2_S2_j
0000000000009090 T _ZN10ImDrawList17_OnChangedTextureEv
0000000000008cb0 T _ZN10ImDrawList17_PopUnusedDrawCmdEv
0000000000011b60 T _ZN10ImDrawList17_ResetForNewFrameEv
0000000000008f10 T _ZN10ImDrawList17_TryMergeDrawCmdsEv
000000000000f710 T _ZN10ImDrawList18AddBezierQuadraticERK6ImVec2S2_S2_jfi
0000000000008fb0 T _ZN10ImDrawList18_OnChangedClipRectEv
000000000000b490 T _ZN10ImDrawList19AddConvexPolyFilledEPK6ImVec2ij
000000000000acc0 t _ZN10ImDrawList19AddConvexPolyFilledEPK6ImVec2ij.part.0
000000000000c5a0 T _ZN10ImDrawList19PathEllipticalArcToERK6ImVec2S2_fffi
0000000000009150 T _ZN10ImDrawList19_OnChangedVtxOffsetEv
0000000000010540 T _ZN10ImDrawList20AddConcavePolyFilledEPK6ImVec2ij
000000000000ca10 T _ZN10ImDrawList22PathBezierCubicCurveToERK6ImVec2S2_S2_i
0000000000009410 T _ZN10ImDrawList22PushClipRectFullScreenEv
00000000000089c0 T _ZN10ImDrawList22_SetDrawListSharedDataEP20ImDrawListSharedData
000000000000e120 T _ZN10ImDrawList23AddRectFilledMultiColorERK6ImVec2S2_jjjj
000000000000cf50 T _ZN10ImDrawList26PathBezierQuadraticCurveToERK6ImVec2S2_i
000000000000dd10 T _ZN10ImDrawList7AddLineERK6ImVec2S2_jf
000000000000efd0 T _ZN10ImDrawList7AddNgonERK6ImVec2fjif
000000000000e250 T _ZN10ImDrawList7AddQuadERK6ImVec2S2_S2_S2_jf
000000000000df00 T _ZN10ImDrawList7AddRectERK6ImVec2S2_jfif
0000000000021980 T _ZN10ImDrawList7AddTextEP6ImFontfRK6ImVec2jPKcS6_fPK6ImVec4
0000000000021ab0 T _ZN10ImDrawList7AddTextERK6ImVec2jPKcS4_
000000000000f850 T _ZN10ImDrawList8AddImageE12ImTextureRefRK6ImVec2S3_S3_S3_j
000000000000d3d0 T _ZN10ImDrawList8PathRectERK6ImVec2S2_fi
000000000000b210 T _ZN10ImDrawList8PrimRectERK6ImVec2S2_j
000000000000ed60 T _ZN10ImDrawList9AddCircleERK6ImVec2fjif
000000000000c4b0 T _ZN10ImDrawList9PathArcToERK6ImVec2fffi
000000000000bc50 t _ZN10ImDrawList9PathArcToERK6ImVec2fffi.part.0
0000000000010c20 T _ZN10ImDrawListC1EP20ImDrawListSharedData
0000000000010c20 T _ZN10ImDrawListC2EP20ImDrawListSharedData
0000000000000000 t _ZN10ImDrawListC2EP20ImDrawListSharedData.cold
00000000000110c0 T _ZN10ImDrawListD1Ev
00000000000110c0 T _ZN10ImDrawListD2Ev
0000000000016490 T _ZN11ImFontAtlas10ClearFontsEv
0000000000016cb0 T _ZN11ImFontAtlas10RemoveFontEP6ImFont
0000000000012ed0 T _ZN11ImFontAtlas12ClearTexDataEv
0000000000018280 T _ZN11ImFontAtlas12CompactCacheEv
0000000000018d50 T _ZN11ImFontAtlas13AddCustomRectEiiP15ImFontAtlasRect
0000000000016bf0 T _ZN11ImFontAtlas13SetFontLoaderEPK12ImFontLoader
0000000000019e80 T _ZN11ImFontAtlas14AddFontDefaultEPK12ImFontConfig
00000000000160b0 T _ZN11ImFontAtlas14ClearInputDataEv
000000000001a780 T _ZN11ImFontAtlas16RemoveCustomRectEi
0000000000019c50 T _ZN11ImFontAtlas18AddFontFromFileTTFEPKcfPK12ImFontConfigPKt
0000000000019ac0 T _ZN11ImFontAtlas20AddFontFromMemoryTTFEPvifPK12ImFontConfigPKt
000000000001b070 T _ZN11ImFontAtlas21GetGlyphRangesDefaultEv
000000000001a120 T _ZN11ImFontAtlas30AddFontFromMemoryCompressedTTFEPKvifPK12ImFontConfigPKt
000000000001a390 T _ZN11ImFontAtlas36AddFontFromMemoryCompressedBase85TTFEPKcfPK12ImFontConfigPKt
00000000000167a0 T _ZN11ImFontAtlas5ClearEv
0000000000019340 T _ZN11ImFontAtlas7AddFontEPK12ImFontConfig
0000000000012e70 T _ZN11ImFontAtlasC1Ev
0000000000012e70 T _ZN11ImFontAtlasC2Ev
00000000000165c0 T _ZN11ImFontAtlasD1Ev
00000000000165c0 T _ZN11ImFontAtlasD2Ev
000000000001ed40 T _ZN11ImFontBaked13IsGlyphLoadedEt
000000000001ee10 T _ZN11ImFontBaked14GetCharAdvanceEt
000000000001b580 T _ZN11ImFontBaked15ClearOutputDataEv
000000000001ecd0 T _ZN11ImFontBaked19FindGlyphNoFallbackEt
000000000001ec60 T _ZN11ImFontBaked9FindGlyphEt
000000000001b540 T _ZN11ImFontBakedC1Ev
000000000001b540 T _ZN11ImFontBakedC2Ev
0000000000012c20 T _ZN12ImFontConfigC1Ev
0000000000012c20 T _ZN12ImFontConfigC2Ev
                 U _ZN12ImGuiStorage10SetVoidPtrEjPv
                 U _ZN12ImGuiStorage13GetVoidPtrRefEjPv
                 U _ZN12ImGuiStorage6SetIntEji
0000000000012e40 T _ZN13ImTextureData13DestroyPixelsEv
0000000000012d40 T _ZN13ImTextureData6CreateE15ImTextureFormatii
000000000000fbf0 T _ZN14ImTriangulator10BuildNodesEPK6ImVec2i
000000000000ffb0 T _ZN14ImTriangulator12FlipNodeListEv
000000000000fcb0 T _ZN14ImTriangulator13BuildReflexesEv
00000000000100c0 T _ZN14ImTriangulator14ReclassifyNodeEP18ImTriangulatorNode
0000000000010360 T _ZN14ImTriangulator15GetNextTriangleEPj
000000000000fe60 T _ZN14ImTriangulator4InitEPK6ImVec2iPv
000000000000fd40 T _ZN14ImTriangulator9BuildEarsEv
0000000000010ae0 T _ZN18ImDrawListSplitter15ClearFreeMemoryEv
0000000000011420 T _ZN18ImDrawListSplitter17SetCurrentChannelEP10ImDrawListi
0000000000011b50 T _ZN18ImDrawListSplitter5MergeEP10ImDrawList
0000000000011550 t _ZN18ImDrawListSplitter5MergeEP10ImDrawList.part.0
00000000000111f0 T _ZN18ImDrawListSplitter5SplitEP10ImDrawListi
0000000000008880 T _ZN20ImDrawListSharedData29SetCircleTessellationMaxErrorEf
0000000000008770 T _ZN20ImDrawListSharedDataC1Ev
0000000000008770 T _ZN20ImDrawListSharedDataC2Ev
0000000000008830 T _ZN20ImDrawListSharedDataD1Ev
0000000000008830 T _ZN20ImDrawListSharedDataD2Ev
000000000001b220 T _ZN24ImFontGlyphRangesBuilder11BuildRangesEP8ImVectorItE
000000000001b080 T _ZN24ImFontGlyphRangesBuilder7AddTextEPKcS1_
000000000001b190 T _ZN24ImFontGlyphRangesBuilder9AddRangesEPKt
                 U _ZN5ImGui11GetColorU32Ejf
0000000000021b30 T _ZN5ImGui11RenderArrowEP10ImDrawList6ImVec2j8ImGuiDirf
0000000000021f60 T _ZN5ImGui12RenderBulletEP10ImDrawList6ImVec2j
                 U _ZN5ImGui14SetCurrentFontEP6ImFontff
0000000000022060 T _ZN5ImGui15RenderCheckMarkEP10ImDrawList6ImVec2jf
0000000000007d80 T _ZN5ImGui15StyleColorsDarkEP10ImGuiStyle
0000000000008420 T _ZN5ImGui16StyleColorsLightEP10ImGuiStyle
                 U _ZN5ImGui17GetCurrentContextEv
                 U _ZN5ImGui17SetCurrentContextEP12ImGuiContext
00000000000126f0 T _ZN5ImGui18ShadeVertsLinearUVEP10ImDrawListiiRK6ImVec2S4_S4_S4_b
00000000000080c0 T _ZN5ImGui18StyleColorsClassicEP10ImGuiStyle
0000000000022b50 T _ZN5ImGui19RenderArrowDockMenuEP10ImDrawList6ImVec2fj
00000000000223c0 T _ZN5ImGui21RenderArrowPointingAtEP10ImDrawList6ImVec2S2_8ImGuiDirj
0000000000022f70 T _ZN5ImGui22RenderRectFilledRangeHEP10ImDrawListRK6ImRectjfff
0000000000012ba0 T _ZN5ImGui22ShadeVertsTransformPosEP10ImDrawListiiRK6ImVec2ffS4_
0000000000011fb0 T _ZN5ImGui23AddDrawListToDrawDataExEP10ImDrawDataP8ImVectorIP10ImDrawListES4_
0000000000023f80 T _ZN5ImGui24RenderRectFilledWithHoleEP10ImDrawListRK6ImRectS4_jf
0000000000024410 T _ZN5ImGui30CalcRoundingFlagsForRectInRectERK6ImRectS2_f
00000000000244a0 T _ZN5ImGui36RenderColorRectWithAlphaCheckerboardEP10ImDrawList6ImVec2S2_jfS2_fi
0000000000012560 T _ZN5ImGui38ShadeVertsLinearColorGradientKeepAlphaEP10ImDrawListii6ImVec2S2_jj
                 U _ZN5ImGui7MemFreeEPv
                 U _ZN5ImGui8DebugLogEPKcz
                 U _ZN5ImGui8ErrorLogEPKc
                 U _ZN5ImGui8GetStyleEv
                 U _ZN5ImGui8MemAllocEm
0000000000020b90 T _ZN6ImFont10RenderCharEP10ImDrawListfRK6ImVec2jtPK6ImVec4
0000000000000100 t _ZN6ImFont10RenderCharEP10ImDrawListfRK6ImVec2jtPK6ImVec4.cold
0000000000020f30 T _ZN6ImFont10RenderTextEP10ImDrawListfRK6ImVec2jRK6ImVec4PKcS9_fi
000000000000010a t _ZN6ImFont10RenderTextEP10ImDrawListfRK6ImVec2jRK6ImVec4PKcS9_fi.cold
000000000001ec40 T _ZN6ImFont12AddRemapCharEtt
000000000001ef10 T _ZN6ImFont12GetFontBakedEff
0000000000020760 T _ZN6ImFont13CalcTextSizeAEfffPKcS1_PS1_
00000000000000f4 t _ZN6ImFont13CalcTextSizeAEfffPKcS1_PS1_.cold
000000000001ed70 T _ZN6ImFont13IsGlyphInFontEt
000000000001b680 T _ZN6ImFont15ClearOutputDataEv
000000000001b6b0 T _ZN6ImFont18IsGlyphRangeUnusedEjj
0000000000020250 T _ZN6ImFont20CalcWordWrapPositionEfPKcS1_f
000000000001b610 T _ZN6ImFontC1Ev
000000000001b610 T _ZN6ImFontC2Ev
000000000001b630 T _ZN6ImFontD1Ev
000000000001b630 T _ZN6ImFontD2Ev
0000000000010c80 T _ZNK10ImDrawList11CloneOutputEv
00000000000091b0 T _ZNK10ImDrawList27_CalcCircleAutoSegmentCountEf
000000000001a920 T _ZNK11ImFontAtlas13GetCustomRectEiP15ImFontAtlasRect
                 U _ZNK12ImGuiStorage6GetIntEji
0000000000010010 T _ZNK14ImTriangulator5IsEarEiiiRK6ImVec2S2_S2_
0000000000000040 b _ZZ38ImFontAtlasGetFontLoaderForStbTruetypevE6loader
0000000000002650 r _ZZN11ImFontAtlas21GetGlyphRangesDefaultEvE6ranges
                 U __assert_fail
                 U __cxa_guard_acquire
                 U __cxa_guard_release
                 U __gxx_personality_v0
                 U __memset_chk
                 U __stack_chk_fail
                 U acosf
                 U cosf
                 U memchr
                 U memcpy
                 U memmove
                 U memset
                 U sincosf
                 U sinf
                 U sqrtf
0000000000000f90 t stbtt_FindGlyphIndex.isra.0
0000000000006da0 t stbtt_GetGlyphBitmapBoxSubpixel.constprop.0
                 U strlen

imgui_demo.cpp.o:
0000000000000038 r .LC0
0000000000000030 r .LC1
000000000000002a r .LC10
0000000000000290 r .LC100
00000000000023e7 r .LC1000
0000000000003d40 r .LC1001
0000000000002401 r .LC1002
000000000000240c r .LC1003
0000000000002416 r .LC1004
000000000000241d r .LC1005
0000000000002423 r .LC1006
000000000000242c r .LC1007
0000000000002432 r .LC1008
0000000000002440 r .LC1009
0000000000000004 r .LC101
000000000000244e r .LC1010
0000000000002454 r .LC1011
0000000000000170 r .LC1012
0000000000002466 r .LC1014
000000000000246d r .LC1015
0000000000002471 r .LC1016
0000000000002475 r .LC1017
0000000000002489 r .LC1018
0000000000000070 r .LC1019
0000000000000296 r .LC102
0000000000002490 r .LC1020
0000000000002494 r .LC1021
000000000000249e r .LC1022
0000000000003d98 r .LC1023
00000000000024ba r .LC1024
00000000000024bf r .LC1025
00000000000024d5 r .LC1026
00000000000024db r .LC1027
0000000000003ed0 r .LC1028
0000000000003ef8 r .LC1029
00000000000002a2 r .LC103
00000000000000f8 r .LC1030
00000000000024e8 r .LC1031
00000000000024f2 r .LC1032
00000000000000ac r .LC1033
00000000000024f5 r .LC1034
0000000000002506 r .LC1035
0000000000000054 r .LC1036
0000000000003fc8 r .LC1037
0000000000003ff8 r .LC1038
0000000000004020 r .LC1039
0000000000000220 r .LC104
0000000000000100 r .LC1040
0000000000004058 r .LC1041
0000000000002509 r .LC1042
0000000000002515 r .LC1043
0000000000002520 r .LC1044
000000000000252d r .LC1045
0000000000002535 r .LC1046
000000000000253d r .LC1047
0000000000002543 r .LC1048
0000000000002559 r .LC1049
00000000000002b1 r .LC105
0000000000002574 r .LC1050
0000000000000108 r .LC1051
000000000000257a r .LC1053
0000000000002594 r .LC1054
0000000000004110 r .LC1055
00000000000025a8 r .LC1056
00000000000025bb r .LC1057
0000000000004138 r .LC1058
00000000000025cc r .LC1059
00000000000002b6 r .LC106
00000000000025d4 r .LC1060
00000000000025da r .LC1061
00000000000025e3 r .LC1062
00000000000025ed r .LC1063
00000000000025f7 r .LC1064
0000000000002607 r .LC1065
0000000000002614 r .LC1066
0000000000002629 r .LC1067
0000000000002637 r .LC1068
000000000000263c r .LC1069
00000000000002c0 r .LC107
0000000000002641 r .LC1070
0000000000004180 r .LC1071
000000000000265c r .LC1072
0000000000002665 r .LC1073
0000000000002682 r .LC1074
0000000000002696 r .LC1075
0000000000004398 r .LC1076
00000000000026a3 r .LC1077
00000000000026b7 r .LC1078
00000000000026c0 r .LC1079
00000000000002c9 r .LC108
00000000000026c9 r .LC1080
00000000000026d9 r .LC1081
0000000000000058 r .LC1082
00000000000026dc r .LC1084
00000000000026f6 r .LC1085
0000000000002710 r .LC1086
0000000000002719 r .LC1087
00000000000001ac r .LC1088
0000000000002724 r .LC1089
00000000000002d7 r .LC109
000000000000272e r .LC1090
000000000000273a r .LC1091
0000000000002746 r .LC1092
0000000000002755 r .LC1093
00000000000000c0 r .LC1094
000000000000275a r .LC1095
0000000000002760 r .LC1096
000000000000276a r .LC1097
0000000000002776 r .LC1098
000000000000278e r .LC1099
0000000000000036 r .LC11
00000000000002e5 r .LC110
00000000000027a7 r .LC1100
00000000000027bf r .LC1101
0000000000000110 r .LC1102
0000000000000118 r .LC1103
0000000000000020 r .LC1104
000000000000005c r .LC1105
0000000000000060 r .LC1106
0000000000000014 r .LC1107
0000000000000120 r .LC1108
0000000000000128 r .LC1109
00000000000002ef r .LC111
00000000000027d8 r .LC1110
00000000000027df r .LC1111
00000000000027eb r .LC1112
00000000000044d8 r .LC1113
00000000000027ff r .LC1114
0000000000004530 r .LC1115
0000000000002806 r .LC1116
000000000000280f r .LC1117
0000000000002817 r .LC1118
0000000000002822 r .LC1119
00000000000002fe r .LC112
0000000000000064 r .LC1120
0000000000004560 r .LC1121
000000000000282d r .LC1122
000000000000283e r .LC1123
0000000000004598 r .LC1124
000000000000285b r .LC1125
00000000000045e8 r .LC1126
0000000000000068 r .LC1127
0000000000002878 r .LC1128
0000000000004638 r .LC1129
0000000000000306 r .LC113
0000000000004668 r .LC1130
0000000000000130 r .LC1131
0000000000000138 r .LC1132
0000000000004698 r .LC1133
00000000000046d8 r .LC1134
0000000000004718 r .LC1135
000000000000006c r .LC1137
0000000000002886 r .LC1139
0000000000000317 r .LC114
000000000000288d r .LC1140
0000000000002892 r .LC1141
0000000000002899 r .LC1142
000000000000289f r .LC1143
00000000000028a7 r .LC1144
00000000000028ab r .LC1145
00000000000028af r .LC1146
00000000000028be r .LC1147
0000000000004760 r .LC1148
00000000000028d4 r .LC1149
0000000000000321 r .LC115
00000000000028e8 r .LC1150
00000000000028fd r .LC1151
0000000000002913 r .LC1152
000000000000291f r .LC1153
0000000000002930 r .LC1154
0000000000002942 r .LC1155
0000000000002957 r .LC1156
000000000000295f r .LC1157
000000000000296a r .LC1158
0000000000002972 r .LC1159
000000000000032b r .LC116
0000000000002986 r .LC1160
0000000000002993 r .LC1161
00000000000029a1 r .LC1162
00000000000029b8 r .LC1163
00000000000047e0 r .LC1164
00000000000029c0 r .LC1165
00000000000049f0 r .LC1166
00000000000029d8 r .LC1167
00000000000029f3 r .LC1168
0000000000002a08 r .LC1169
000000000000032f r .LC117
0000000000004a18 r .LC1170
0000000000004a40 r .LC1171
0000000000002a1f r .LC1172
0000000000004a70 r .LC1173
0000000000002a34 r .LC1174
0000000000002a39 r .LC1175
0000000000002a46 r .LC1176
0000000000004b38 r .LC1177
0000000000004b60 r .LC1178
0000000000000140 r .LC1179
000000000000033f r .LC118
00000000000000e0 r .LC1180
0000000000002a52 r .LC1181
0000000000002a5a r .LC1182
0000000000002a73 r .LC1183
0000000000002a7d r .LC1184
0000000000002a94 r .LC1185
0000000000004b90 r .LC1186
0000000000002ab0 r .LC1187
0000000000004bb8 r .LC1188
0000000000004be0 r .LC1189
000000000000034d r .LC119
0000000000004c00 r .LC1190
0000000000002acc r .LC1191
0000000000002ae8 r .LC1192
0000000000002b04 r .LC1193
0000000000002b0a r .LC1194
0000000000002b11 r .LC1195
0000000000002b22 r .LC1196
0000000000004c28 r .LC1197
00000000000000f0 r .LC1198
0000000000002b29 r .LC1199
0000000000000041 r .LC12
000000000000035c r .LC120
0000000000004c50 r .LC1200
0000000000002b31 r .LC1201
0000000000002b3e r .LC1202
0000000000004c78 r .LC1203
0000000000002b45 r .LC1204
0000000000002b59 r .LC1205
0000000000004ca0 r .LC1206
0000000000002b60 r .LC1207
0000000000002b6b r .LC1208
0000000000002b72 r .LC1209
0000000000000365 r .LC121
0000000000002b7e r .LC1210
0000000000002b9b r .LC1211
0000000000002ba9 r .LC1212
0000000000002baf r .LC1213
0000000000002bb9 r .LC1214
0000000000002bc3 r .LC1215
0000000000002bcc r .LC1216
0000000000002bd5 r .LC1217
0000000000002be0 r .LC1218
0000000000002beb r .LC1219
000000000000037a r .LC122
0000000000002bf0 r .LC1220
0000000000002bf5 r .LC1221
0000000000002bfe r .LC1222
0000000000002c09 r .LC1223
0000000000004cc8 r .LC1224
0000000000002c27 r .LC1225
0000000000004cf0 r .LC1226
0000000000002c43 r .LC1227
0000000000002c57 r .LC1228
0000000000002c6e r .LC1229
0000000000000396 r .LC123
0000000000004de8 r .LC1230
0000000000002c76 r .LC1231
0000000000002c78 r .LC1232
0000000000002c7a r .LC1233
0000000000002c7c r .LC1234
0000000000004e28 r .LC1235
0000000000002c89 r .LC1236
0000000000004e68 r .LC1237
0000000000002c8b r .LC1238
0000000000002c9b r .LC1239
00000000000003a8 r .LC124
0000000000002ca6 r .LC1240
0000000000002cb1 r .LC1241
0000000000002cbc r .LC1242
0000000000002cc9 r .LC1243
0000000000002cdd r .LC1244
0000000000002cf5 r .LC1245
0000000000002d00 r .LC1246
0000000000002d0b r .LC1247
0000000000002d16 r .LC1248
0000000000004e88 r .LC1249
00000000000003ba r .LC125
0000000000002d1d r .LC1250
0000000000002d35 r .LC1251
0000000000004ed8 r .LC1252
0000000000002d3e r .LC1253
0000000000002d53 r .LC1254
0000000000002d6f r .LC1255
0000000000002d88 r .LC1256
0000000000002da2 r .LC1257
0000000000002daa r .LC1258
0000000000004f30 r .LC1259
00000000000003d5 r .LC126
0000000000004f58 r .LC1260
0000000000002dc0 r .LC1261
0000000000002ddc r .LC1262
0000000000002de1 r .LC1263
0000000000002dea r .LC1264
0000000000002df1 r .LC1265
0000000000002e02 r .LC1266
0000000000002e0d r .LC1267
0000000000002e1a r .LC1268
0000000000004f80 r .LC1269
00000000000003db r .LC127
0000000000002e33 r .LC1270
0000000000004fd8 r .LC1271
0000000000002e40 r .LC1272
0000000000002e47 r .LC1273
0000000000005030 r .LC1274
0000000000002e58 r .LC1275
0000000000002e5f r .LC1276
0000000000002e66 r .LC1277
0000000000002e74 r .LC1278
0000000000005080 r .LC1279
00000000000003e6 r .LC128
0000000000002e7c r .LC1280
0000000000002e83 r .LC1281
0000000000002e9e r .LC1282
0000000000002eb2 r .LC1283
0000000000002ec8 r .LC1284
0000000000005190 r .LC1285
0000000000002ee0 r .LC1286
0000000000002ef9 r .LC1287
0000000000002f17 r .LC1288
0000000000002f35 r .LC1289
00000000000003f7 r .LC129
0000000000002f4e r .LC1290
0000000000002f6c r .LC1291
0000000000002f8a r .LC1292
0000000000002fa7 r .LC1293
0000000000002fc4 r .LC1294
0000000000002fd3 r .LC1295
0000000000002fde r .LC1296
0000000000005230 r .LC1297
0000000000005250 r .LC1298
0000000000002fee r .LC1299
000000000000004e r .LC13
0000000000000405 r .LC130
0000000000002ffa r .LC1300
0000000000003014 r .LC1301
0000000000003027 r .LC1302
00000000000052a8 r .LC1303
0000000000003041 r .LC1304
0000000000003059 r .LC1305
0000000000005340 r .LC1306
000000000000306a r .LC1307
0000000000003088 r .LC1308
00000000000030a0 r .LC1309
000000000000041c r .LC131
0000000000005408 r .LC1310
00000000000030b1 r .LC1311
00000000000030b7 r .LC1312
00000000000030c0 r .LC1313
00000000000030c8 r .LC1314
00000000000054d0 r .LC1315
0000000000005500 r .LC1316
0000000000005528 r .LC1317
00000000000030cc r .LC1318
00000000000030e8 r .LC1319
0000000000000260 r .LC132
0000000000005590 r .LC1320
00000000000055c0 r .LC1321
0000000000005630 r .LC1322
0000000000003101 r .LC1323
000000000000310d r .LC1324
0000000000005658 r .LC1325
000000000000311c r .LC1326
0000000000005820 r .LC1327
0000000000003136 r .LC1328
0000000000005870 r .LC1329
0000000000000435 r .LC133
0000000000003152 r .LC1330
00000000000058c8 r .LC1331
000000000000316e r .LC1332
000000000000317b r .LC1333
0000000000005950 r .LC1334
0000000000003189 r .LC1335
000000000000319e r .LC1336
00000000000031aa r .LC1337
00000000000031ba r .LC1338
00000000000031c1 r .LC1339
000000000000043f r .LC134
00000000000031d8 r .LC1340
00000000000031e8 r .LC1341
00000000000031f0 r .LC1342
00000000000031f9 r .LC1343
0000000000003206 r .LC1344
0000000000005988 r .LC1345
000000000000320f r .LC1347
0000000000005a28 r .LC1348
0000000000003218 r .LC1349
000000000000044d r .LC135
0000000000005ad8 r .LC1350
0000000000003236 r .LC1351
000000000000324e r .LC1352
0000000000003266 r .LC1353
0000000000005bc8 r .LC1354
000000000000327d r .LC1355
0000000000003285 r .LC1356
0000000000005bf0 r .LC1357
0000000000005c20 r .LC1358
0000000000005c48 r .LC1359
0000000000000290 r .LC136
0000000000003288 r .LC1360
0000000000003296 r .LC1361
00000000000032b2 r .LC1362
0000000000005d10 r .LC1363
00000000000032c7 r .LC1364
00000000000032d3 r .LC1365
00000000000032df r .LC1366
00000000000032ed r .LC1367
00000000000032f4 r .LC1368
00000000000032f9 r .LC1369
0000000000000459 r .LC137
00000000000032fe r .LC1370
0000000000003302 r .LC1371
000000000000330a r .LC1372
000000000000331c r .LC1373
0000000000005eb0 r .LC1374
000000000000332e r .LC1375
0000000000003335 r .LC1376
000000000000333a r .LC1377
0000000000003346 r .LC1378
000000000000335b r .LC1379
0000000000000466 r .LC138
0000000000005fc8 r .LC1380
0000000000003369 r .LC1381
000000000000336e r .LC1382
000000000000337b r .LC1383
0000000000005fe8 r .LC1384
0000000000003385 r .LC1385
0000000000003392 r .LC1386
000000000000339f r .LC1387
00000000000033ad r .LC1388
00000000000033b9 r .LC1389
0000000000000000 r .LC139
00000000000033c3 r .LC1390
00000000000033ce r .LC1391
00000000000033d6 r .LC1392
00000000000033de r .LC1393
00000000000033e6 r .LC1394
00000000000033f7 r .LC1395
0000000000003409 r .LC1396
0000000000003418 r .LC1397
0000000000003427 r .LC1398
000000000000343c r .LC1399
0000000000000059 r .LC14
0000000000000038 r .LC140
0000000000003452 r .LC1400
0000000000003460 r .LC1401
0000000000003475 r .LC1402
0000000000003484 r .LC1403
000000000000349a r .LC1404
00000000000034a8 r .LC1405
00000000000034b6 r .LC1406
00000000000034c1 r .LC1407
00000000000034cc r .LC1408
00000000000034d6 r .LC1409
0000000000000000 r .LC141
0000000000000070 r .LC1410
00000000000034e1 r .LC1411
00000000000034f5 r .LC1412
00000000000034fe r .LC1413
0000000000003504 r .LC1414
000000000000351a r .LC1415
0000000000006020 r .LC1416
0000000000003529 r .LC1417
000000000000352d r .LC1418
0000000000003531 r .LC1419
0000000000000328 r .LC142
0000000000003537 r .LC1420
0000000000006058 r .LC1421
0000000000006110 r .LC1422
0000000000003542 r .LC1423
0000000000003557 r .LC1424
0000000000006138 r .LC1425
0000000000003565 r .LC1426
0000000000003573 r .LC1427
0000000000003576 r .LC1428
0000000000003579 r .LC1429
0000000000000360 r .LC143
0000000000003582 r .LC1430
0000000000003590 r .LC1431
0000000000003593 r .LC1432
0000000000003596 r .LC1433
000000000000359f r .LC1434
00000000000035a8 r .LC1435
00000000000035b1 r .LC1436
00000000000035ba r .LC1437
00000000000035c3 r .LC1438
00000000000035cc r .LC1439
0000000000000477 r .LC144
00000000000035d5 r .LC1440
00000000000035e7 r .LC1441
0000000000006178 r .LC1442
00000000000035f2 r .LC1443
0000000000003603 r .LC1444
00000000000062a8 r .LC1445
0000000000003619 r .LC1446
0000000000000100 r .LC1447
0000000000003630 r .LC1448
0000000000003634 r .LC1449
0000000000000010 r .LC145
000000000000363b r .LC1450
0000000000003642 r .LC1451
0000000000003646 r .LC1452
0000000000006370 r .LC1453
0000000000003661 r .LC1454
000000000000367e r .LC1455
0000000000003693 r .LC1456
00000000000036a5 r .LC1457
00000000000063d8 r .LC1458
0000000000006400 r .LC1459
0000000000000020 r .LC146
00000000000036b0 r .LC1460
00000000000064a0 r .LC1461
0000000000000074 r .LC1462
00000000000036ce r .LC1463
00000000000036d9 r .LC1464
0000000000000078 r .LC1465
00000000000036ee r .LC1466
0000000000003706 r .LC1467
0000000000006568 r .LC1468
0000000000000030 r .LC147
0000000000003717 r .LC1470
0000000000003723 r .LC1472
00000000000065c8 r .LC1473
0000000000003731 r .LC1475
0000000000006628 r .LC1476
000000000000373e r .LC1477
0000000000006650 r .LC1478
0000000000006678 r .LC1479
0000000000000040 r .LC148
00000000000066a8 r .LC1480
0000000000000110 r .LC1481
0000000000003756 r .LC1482
0000000000000120 r .LC1483
000000000000375b r .LC1484
000000000000376c r .LC1485
00000000000066d0 r .LC1486
00000000000066f8 r .LC1487
0000000000006720 r .LC1488
0000000000006748 r .LC1489
0000000000000494 r .LC149
0000000000006770 r .LC1490
00000000000067b8 r .LC1491
0000000000003776 r .LC1492
0000000000000178 r .LC1493
000000000000377c r .LC1494
0000000000003781 r .LC1495
0000000000003793 r .LC1496
0000000000006818 r .LC1497
000000000000379e r .LC1498
00000000000037af r .LC1499
0000000000000060 r .LC15
00000000000004a3 r .LC150
00000000000037b5 r .LC1500
00000000000037ba r .LC1501
00000000000037c6 r .LC1502
00000000000037cd r .LC1503
00000000000037d4 r .LC1504
00000000000037dd r .LC1505
00000000000037f3 r .LC1506
0000000000003802 r .LC1507
0000000000003817 r .LC1508
000000000000381f r .LC1509
00000000000003c0 r .LC151
000000000000382a r .LC1510
0000000000003840 r .LC1511
000000000000384f r .LC1512
0000000000003856 r .LC1513
000000000000385b r .LC1514
0000000000003861 r .LC1515
0000000000003868 r .LC1516
0000000000003870 r .LC1517
0000000000003878 r .LC1518
0000000000003880 r .LC1519
0000000000000400 r .LC152
0000000000003888 r .LC1520
0000000000003890 r .LC1521
0000000000003898 r .LC1522
000000000000389d r .LC1523
00000000000038a1 r .LC1524
00000000000038a6 r .LC1525
00000000000038af r .LC1526
00000000000038b8 r .LC1527
00000000000038c3 r .LC1528
00000000000038cd r .LC1529
00000000000004af r .LC153
00000000000038de r .LC1530
00000000000038f6 r .LC1531
0000000000003905 r .LC1532
00000000000068e8 r .LC1533
0000000000003911 r .LC1534
0000000000006918 r .LC1535
0000000000003920 r .LC1536
000000000000007c r .LC1537
000000000000393e r .LC1538
0000000000006960 r .LC1539
00000000000004ba r .LC154
0000000000003943 r .LC1540
0000000000003958 r .LC1541
0000000000003961 r .LC1542
0000000000006988 r .LC1543
0000000000006a50 r .LC1544
0000000000003976 r .LC1545
0000000000006a78 r .LC1546
0000000000003989 r .LC1547
0000000000006b08 r .LC1548
000000000000399e r .LC1549
00000000000004c5 r .LC155
0000000000006b40 r .LC1550
0000000000006b80 r .LC1551
00000000000039a6 r .LC1552
00000000000039b9 r .LC1553
00000000000039d1 r .LC1554
0000000000006ba8 r .LC1555
0000000000006c10 r .LC1556
00000000000039e2 r .LC1557
00000000000039f2 r .LC1558
00000000000039f8 r .LC1559
0000000000000448 r .LC156
0000000000003a05 r .LC1560
0000000000003a14 r .LC1561
0000000000003a1c r .LC1562
0000000000006c30 r .LC1563
0000000000003a36 r .LC1564
0000000000006cc8 r .LC1565
0000000000003a53 r .LC1566
0000000000003a61 r .LC1567
0000000000003a68 r .LC1568
0000000000006d50 r .LC1569
00000000000004cd r .LC157
0000000000003a71 r .LC1570
0000000000003a81 r .LC1571
0000000000003a8d r .LC1572
0000000000000080 r .LC1573
0000000000003aa3 r .LC1574
0000000000003aad r .LC1575
0000000000006d90 r .LC1576
0000000000003ac6 r .LC1577
0000000000003ad3 r .LC1578
0000000000006db0 r .LC1579
00000000000004e2 r .LC158
0000000000006e28 r .LC1580
0000000000006e50 r .LC1581
0000000000003adb r .LC1582
0000000000003ae4 r .LC1583
0000000000003aef r .LC1584
0000000000003af8 r .LC1585
0000000000006f10 r .LC1586
0000000000006f38 r .LC1587
0000000000003b01 r .LC1588
0000000000003b08 r .LC1589
00000000000004f4 r .LC159
0000000000003b1a r .LC1590
0000000000003b26 r .LC1591
0000000000006fb0 r .LC1592
0000000000007138 r .LC1593
0000000000003b31 r .LC1594
0000000000007160 r .LC1595
0000000000003b40 r .LC1596
0000000000003b4c r .LC1597
0000000000003b66 r .LC1598
0000000000003b75 r .LC1599
0000000000000066 r .LC16
0000000000000503 r .LC160
0000000000003b81 r .LC1600
0000000000007188 r .LC1601
0000000000003b88 r .LC1602
0000000000003b8d r .LC1603
0000000000003b91 r .LC1604
0000000000003bac r .LC1605
0000000000003bb1 r .LC1606
00000000000071c0 r .LC1607
00000000000071e0 r .LC1608
0000000000000084 r .LC1609
0000000000000518 r .LC161
0000000000000000 r .LC1611
000000000000000a r .LC1612
0000000000000012 r .LC1613
0000000000000019 r .LC1614
000000000000001b r .LC1615
0000000000000000 r .LC1616
0000000000007220 r .LC1618
0000000000007248 r .LC1619
0000000000000532 r .LC162
0000000000007268 r .LC1620
00000000000072e8 r .LC1621
0000000000003bbf r .LC1622
0000000000003bcd r .LC1623
0000000000007310 r .LC1624
0000000000007368 r .LC1625
00000000000073a8 r .LC1626
00000000000073d8 r .LC1627
0000000000003bd7 r .LC1628
0000000000003be4 r .LC1629
0000000000000538 r .LC163
0000000000007400 r .LC1630
0000000000007440 r .LC1631
0000000000007470 r .LC1632
0000000000003bf8 r .LC1633
0000000000003c0e r .LC1634
0000000000003c29 r .LC1635
0000000000007498 r .LC1636
0000000000003c47 r .LC1637
0000000000003c58 r .LC1638
0000000000003c61 r .LC1639
0000000000000468 r .LC164
00000000000074f0 r .LC1640
0000000000003c71 r .LC1641
0000000000003c8d r .LC1642
0000000000003c9d r .LC1643
0000000000007528 r .LC1644
0000000000003cb5 r .LC1645
0000000000007560 r .LC1646
0000000000003cd2 r .LC1647
0000000000003ce8 r .LC1648
0000000000003cf5 r .LC1649
0000000000000578 r .LC165
0000000000007588 r .LC1650
00000000000075b8 r .LC1651
0000000000003d05 r .LC1652
00000000000075f0 r .LC1653
0000000000003d15 r .LC1654
0000000000007628 r .LC1655
0000000000003d32 r .LC1656
0000000000003d4c r .LC1657
0000000000003d53 r .LC1658
0000000000007660 r .LC1659
000000000000053d r .LC166
0000000000003d59 r .LC1660
0000000000007698 r .LC1661
00000000000076c8 r .LC1662
00000000000076f8 r .LC1663
0000000000007720 r .LC1664
0000000000007758 r .LC1665
0000000000007780 r .LC1666
00000000000077a8 r .LC1667
00000000000077d0 r .LC1668
0000000000007808 r .LC1669
00000000000006f8 r .LC167
0000000000007828 r .LC1670
0000000000007850 r .LC1671
0000000000007870 r .LC1672
0000000000007898 r .LC1673
0000000000003d73 r .LC1674
00000000000078c0 r .LC1675
00000000000078e8 r .LC1676
0000000000007920 r .LC1677
0000000000003d83 r .LC1678
0000000000007950 r .LC1679
000000000000054b r .LC168
0000000000003d98 r .LC1680
0000000000003dab r .LC1681
0000000000007a28 r .LC1682
0000000000007a68 r .LC1683
0000000000003db2 r .LC1684
0000000000007a98 r .LC1685
0000000000003dca r .LC1686
0000000000003dd9 r .LC1687
0000000000003de9 r .LC1688
0000000000003dfc r .LC1689
0000000000000728 r .LC169
0000000000003e0c r .LC1690
0000000000007c20 r .LC1691
0000000000007c48 r .LC1692
0000000000007c70 r .LC1693
0000000000007c98 r .LC1694
0000000000007cc8 r .LC1695
0000000000007cf0 r .LC1696
0000000000007d18 r .LC1697
0000000000007d40 r .LC1698
0000000000007d70 r .LC1699
000000000000006d r .LC17
000000000000055d r .LC170
0000000000003e1e r .LC1700
0000000000007db0 r .LC1701
0000000000000148 r .LC1702
0000000000000150 r .LC1703
0000000000000150 r .LC1704
0000000000003e26 r .LC1705
0000000000003e3d r .LC1706
0000000000007de0 r .LC1707
0000000000003e51 r .LC1708
0000000000000088 r .LC1710
000000000000008c r .LC1711
0000000000003e5c r .LC1712
0000000000003e64 r .LC1713
0000000000003e74 r .LC1714
0000000000003e7c r .LC1715
0000000000007e08 r .LC1716
0000000000003e8b r .LC1717
0000000000003e95 r .LC1718
0000000000003eaa r .LC1719
0000000000000563 r .LC172
0000000000003ec5 r .LC1720
0000000000003ee0 r .LC1721
0000000000003ef3 r .LC1722
0000000000003f03 r .LC1723
0000000000003f0a r .LC1724
0000000000003f25 r .LC1725
0000000000003f37 r .LC1726
0000000000003f47 r .LC1727
0000000000003f57 r .LC1728
0000000000003f6e r .LC1729
0000000000000569 r .LC173
0000000000003f7d r .LC1730
0000000000007e30 r .LC1731
0000000000003f9a r .LC1732
0000000000003fb8 r .LC1733
0000000000003fca r .LC1734
0000000000003fe7 r .LC1735
0000000000007e78 r .LC1736
0000000000007ef0 r .LC1737
0000000000007f10 r .LC1738
0000000000004005 r .LC1739
0000000000000572 r .LC174
0000000000007f58 r .LC1740
0000000000007f98 r .LC1741
0000000000007fc0 r .LC1742
0000000000004022 r .LC1743
0000000000008040 r .LC1744
0000000000008098 r .LC1745
00000000000080b8 r .LC1746
000000000000403b r .LC1747
0000000000008138 r .LC1748
0000000000004057 r .LC1749
000000000000057f r .LC175
0000000000004072 r .LC1750
0000000000004085 r .LC1751
000000000000409b r .LC1752
0000000000000090 r .LC1753
00000000000040b1 r .LC1754
00000000000040ca r .LC1755
00000000000040dd r .LC1756
00000000000040f2 r .LC1757
0000000000004107 r .LC1758
0000000000004115 r .LC1759
0000000000000582 r .LC176
000000000000411b r .LC1760
000000000000412a r .LC1761
00000000000081a0 r .LC1762
0000000000004131 r .LC1763
0000000000000130 r .LC1764
0000000000000140 r .LC1765
0000000000000158 r .LC1766
0000000000000158 r .LC1767
000000000000413b r .LC1768
000000000000414d r .LC1769
0000000000000596 r .LC177
0000000000000160 r .LC1770
0000000000008290 r .LC1771
00000000000082b0 r .LC1772
000000000000415f r .LC1773
0000000000004171 r .LC1774
0000000000004184 r .LC1775
00000000000082d0 r .LC1776
000000000000418f r .LC1777
0000000000008300 r .LC1778
0000000000004199 r .LC1779
00000000000005a3 r .LC178
00000000000041a5 r .LC1780
0000000000008338 r .LC1781
00000000000041b1 r .LC1782
00000000000041c9 r .LC1783
00000000000041d0 r .LC1784
00000000000041dd r .LC1785
00000000000041e9 r .LC1786
00000000000041f7 r .LC1787
0000000000004202 r .LC1788
000000000000420c r .LC1789
00000000000005a8 r .LC179
0000000000004218 r .LC1790
000000000000421f r .LC1791
000000000000422b r .LC1792
0000000000004239 r .LC1793
0000000000004244 r .LC1794
000000000000424e r .LC1795
000000000000425a r .LC1796
0000000000004261 r .LC1797
000000000000426e r .LC1798
000000000000427a r .LC1799
0000000000000077 r .LC18
00000000000005bb r .LC180
0000000000004288 r .LC1800
0000000000004293 r .LC1801
000000000000429d r .LC1802
00000000000042a9 r .LC1803
00000000000042b0 r .LC1804
00000000000042bd r .LC1805
00000000000042ca r .LC1806
00000000000042d6 r .LC1807
00000000000042e4 r .LC1808
00000000000042ee r .LC1809
00000000000005c1 r .LC181
00000000000042fc r .LC1810
0000000000004312 r .LC1811
0000000000004323 r .LC1812
0000000000008358 r .LC1813
0000000000008398 r .LC1814
000000000000432c r .LC1815
0000000000004334 r .LC1816
0000000000004340 r .LC1817
0000000000000168 r .LC1818
0000000000000094 r .LC1819
00000000000005ca r .LC182
000000000000434a r .LC1820
0000000000004351 r .LC1821
000000000000435b r .LC1823
0000000000004360 r .LC1824
000000000000436d r .LC1825
0000000000004376 r .LC1826
0000000000004383 r .LC1827
0000000000004399 r .LC1828
00000000000043a7 r .LC1829
0000000000000758 r .LC183
0000000000000098 r .LC1830
00000000000043b4 r .LC1831
00000000000043ba r .LC1832
00000000000043c6 r .LC1833
00000000000043d4 r .LC1834
00000000000043e1 r .LC1835
00000000000043fb r .LC1836
0000000000000150 r .LC1837
0000000000004409 r .LC1838
000000000000440e r .LC1839
00000000000005d2 r .LC184
00000000000083c0 r .LC1840
0000000000004415 r .LC1841
000000000000442c r .LC1842
0000000000004436 r .LC1843
0000000000004452 r .LC1844
000000000000446d r .LC1845
0000000000004483 r .LC1846
0000000000004494 r .LC1847
00000000000083f0 r .LC1848
0000000000008418 r .LC1849
0000000000000790 r .LC185
00000000000044a0 r .LC1850
0000000000008448 r .LC1851
0000000000008488 r .LC1852
00000000000044ad r .LC1853
00000000000044c8 r .LC1854
00000000000084c8 r .LC1855
00000000000044d6 r .LC1856
000000000000019c r .LC1857
000000000000009c r .LC1858
00000000000044e1 r .LC1859
00000000000005db r .LC186
0000000000008580 r .LC1860
0000000000008618 r .LC1861
00000000000044f4 r .LC1862
000000000000450c r .LC1863
0000000000008670 r .LC1864
0000000000008740 r .LC1865
0000000000004517 r .LC1866
0000000000004533 r .LC1867
000000000000453f r .LC1868
0000000000004553 r .LC1869
00000000000007c8 r .LC187
0000000000008768 r .LC1870
00000000000087d0 r .LC1871
000000000000455f r .LC1872
0000000000004571 r .LC1873
0000000000004578 r .LC1874
000000000000457f r .LC1875
0000000000004586 r .LC1876
000000000000458f r .LC1877
0000000000004598 r .LC1878
00000000000045a1 r .LC1879
0000000000000800 r .LC188
00000000000045a7 r .LC1880
00000000000045b4 r .LC1881
00000000000045c5 r .LC1882
0000000000008888 r .LC1883
00000000000045ce r .LC1884
00000000000045d4 r .LC1885
00000000000045e9 r .LC1886
00000000000045ef r .LC1887
00000000000045fe r .LC1888
0000000000004608 r .LC1889
00000000000005e4 r .LC189
000000000000460c r .LC1890
000000000000461f r .LC1891
0000000000004634 r .LC1892
0000000000000138 r .LC1893
000000000000464f r .LC1894
0000000000008938 r .LC1895
0000000000004656 r .LC1896
0000000000008a18 r .LC1897
000000000000465d r .LC1898
0000000000004667 r .LC1899
000000000000007e r .LC19
00000000000005fc r .LC190
0000000000004685 r .LC1900
0000000000008a40 r .LC1901
0000000000004690 r .LC1902
0000000000008a70 r .LC1903
000000000000469a r .LC1904
0000000000008aa0 r .LC1905
00000000000046a5 r .LC1906
0000000000008ae8 r .LC1907
00000000000046b3 r .LC1908
00000000000046c6 r .LC1909
0000000000000828 r .LC191
0000000000008b10 r .LC1910
00000000000046d1 r .LC1911
00000000000046dd r .LC1912
00000000000046e7 r .LC1913
0000000000008b30 r .LC1914
00000000000046ee r .LC1915
0000000000008b58 r .LC1916
0000000000008ba0 r .LC1917
0000000000008bc8 r .LC1918
0000000000008bf0 r .LC1919
0000000000000850 r .LC192
00000000000046fe r .LC1920
0000000000004705 r .LC1921
000000000000470d r .LC1922
0000000000004720 r .LC1923
0000000000004728 r .LC1924
000000000000473b r .LC1925
0000000000008c18 r .LC1926
0000000000008c50 r .LC1927
0000000000008c70 r .LC1928
0000000000008d00 r .LC1929
0000000000000878 r .LC193
0000000000008d20 r .LC1930
0000000000008d48 r .LC1931
0000000000008d70 r .LC1932
0000000000008dd8 r .LC1933
000000000000474e r .LC1934
0000000000008e10 r .LC1935
0000000000004766 r .LC1936
0000000000008e30 r .LC1937
0000000000008e68 r .LC1938
0000000000008e90 r .LC1939
00000000000008a8 r .LC194
0000000000004780 r .LC1940
000000000000479e r .LC1941
00000000000047b1 r .LC1942
0000000000008eb8 r .LC1943
00000000000047bb r .LC1944
00000000000047cf r .LC1945
00000000000047e2 r .LC1946
00000000000047fb r .LC1947
0000000000000170 r .LC1948
0000000000000178 r .LC1949
0000000000000619 r .LC195
000000000000480c r .LC1950
0000000000004812 r .LC1951
00000000000000a0 r .LC1952
0000000000004817 r .LC1953
000000000000481b r .LC1954
0000000000000180 r .LC1955
0000000000004820 r .LC1956
0000000000000188 r .LC1957
0000000000004825 r .LC1958
0000000000000621 r .LC196
000000000000482e r .LC1960
0000000000004833 r .LC1961
000000000000484a r .LC1962
0000000000004851 r .LC1963
0000000000008ed8 r .LC1964
0000000000004864 r .LC1965
0000000000008f00 r .LC1966
000000000000486d r .LC1967
0000000000008f40 r .LC1968
0000000000004871 r .LC1969
000000000000062b r .LC197
0000000000008f68 r .LC1970
0000000000004876 r .LC1971
0000000000008fa0 r .LC1972
0000000000004881 r .LC1973
0000000000008fd0 r .LC1974
000000000000488a r .LC1975
0000000000004892 r .LC1976
0000000000009000 r .LC1977
0000000000009040 r .LC1978
0000000000009090 r .LC1979
0000000000000634 r .LC198
00000000000048ac r .LC1980
00000000000048c5 r .LC1981
00000000000048d7 r .LC1982
00000000000048e1 r .LC1983
00000000000090d0 r .LC1984
00000000000048e9 r .LC1985
0000000000009118 r .LC1986
0000000000004900 r .LC1987
0000000000004912 r .LC1988
0000000000004926 r .LC1989
000000000000063b r .LC199
0000000000004941 r .LC1990
0000000000004958 r .LC1991
0000000000004973 r .LC1992
000000000000498e r .LC1993
00000000000049a5 r .LC1994
00000000000049b8 r .LC1995
00000000000049ca r .LC1996
00000000000049d3 r .LC1997
00000000000049e8 r .LC1998
00000000000049f4 r .LC1999
0000000000000040 r .LC2
0000000000000083 r .LC20
0000000000000642 r .LC200
0000000000004a03 r .LC2000
0000000000004a14 r .LC2001
0000000000004a27 r .LC2002
0000000000004a3e r .LC2003
0000000000004a59 r .LC2004
0000000000009148 r .LC2005
0000000000009168 r .LC2006
0000000000009188 r .LC2007
0000000000004a77 r .LC2008
0000000000004a8f r .LC2009
0000000000000656 r .LC201
0000000000004aa9 r .LC2010
00000000000091b0 r .LC2011
0000000000004ac6 r .LC2012
0000000000004adf r .LC2013
0000000000004afb r .LC2014
0000000000004b17 r .LC2015
00000000000091d8 r .LC2016
00000000000091f8 r .LC2017
0000000000009220 r .LC2018
0000000000004b35 r .LC2019
00000000000008d0 r .LC202
0000000000004b4d r .LC2020
0000000000004b59 r .LC2021
0000000000004b6a r .LC2022
0000000000004b7a r .LC2023
0000000000004b90 r .LC2024
0000000000004ba9 r .LC2025
0000000000004bbc r .LC2026
0000000000004bd2 r .LC2027
0000000000004be7 r .LC2028
0000000000009248 r .LC2029
0000000000000908 r .LC203
0000000000004bfd r .LC2030
0000000000004c1a r .LC2031
0000000000009280 r .LC2032
00000000000092a8 r .LC2033
0000000000004c34 r .LC2034
0000000000004c51 r .LC2035
0000000000004c6f r .LC2036
0000000000004c89 r .LC2037
0000000000004ca5 r .LC2038
00000000000092c8 r .LC2039
0000000000000667 r .LC204
0000000000004cc2 r .LC2040
0000000000004cc8 r .LC2041
0000000000004ccd r .LC2042
0000000000004cd3 r .LC2043
0000000000004cdb r .LC2044
0000000000004ce9 r .LC2045
0000000000004cf7 r .LC2046
0000000000004d05 r .LC2047
0000000000004d16 r .LC2048
00000000000092f0 r .LC2049
0000000000000684 r .LC205
0000000000004d29 r .LC2050
0000000000009358 r .LC2051
0000000000004d40 r .LC2052
0000000000004d51 r .LC2053
0000000000004d62 r .LC2054
0000000000004d72 r .LC2055
0000000000004d7f r .LC2056
0000000000004d8b r .LC2057
00000000000000a4 r .LC2058
0000000000004d99 r .LC2059
00000000000006a2 r .LC206
0000000000004da6 r .LC2060
0000000000004db4 r .LC2061
0000000000004dc1 r .LC2062
0000000000004dcd r .LC2063
0000000000004dd9 r .LC2064
0000000000004de2 r .LC2065
0000000000009398 r .LC2066
0000000000004ded r .LC2067
0000000000004df5 r .LC2068
0000000000004dfb r .LC2069
00000000000006a4 r .LC207
0000000000004e00 r .LC2070
0000000000004e0e r .LC2071
0000000000004e1b r .LC2072
0000000000004e27 r .LC2073
0000000000004e38 r .LC2074
0000000000004e4a r .LC2075
0000000000004e58 r .LC2076
0000000000004e64 r .LC2077
0000000000004e75 r .LC2078
0000000000004e85 r .LC2079
00000000000006af r .LC208
0000000000004e95 r .LC2080
0000000000004ea5 r .LC2081
0000000000004eae r .LC2082
0000000000004ebd r .LC2083
0000000000004ecb r .LC2084
0000000000004ed9 r .LC2085
0000000000004ee6 r .LC2086
0000000000004ef0 r .LC2087
0000000000004efe r .LC2088
0000000000004f10 r .LC2089
00000000000006b6 r .LC209
0000000000004f21 r .LC2090
0000000000004f2f r .LC2091
0000000000004f40 r .LC2092
0000000000009420 r .LC2093
0000000000004f53 r .LC2094
0000000000000018 r .LC2095
0000000000004f63 r .LC2096
0000000000004f68 r .LC2097
0000000000009480 r .LC2098
00000000000094a0 r .LC2099
000000000000008d r .LC21
00000000000006b8 r .LC210
0000000000004f7a r .LC2100
0000000000004f86 r .LC2101
0000000000004f9e r .LC2102
0000000000004fba r .LC2103
0000000000004fc0 r .LC2104
00000000000094c8 r .LC2105
0000000000000190 r .LC2106
0000000000004fcf r .LC2107
0000000000004fdd r .LC2108
0000000000004fef r .LC2109
0000000000000930 r .LC211
0000000000004ff7 r .LC2110
0000000000005008 r .LC2111
0000000000005021 r .LC2113
000000000000503a r .LC2115
000000000000504e r .LC2116
0000000000009598 r .LC2117
000000000000505e r .LC2118
00000000000095e0 r .LC2119
0000000000000960 r .LC212
0000000000005072 r .LC2120
000000000000508a r .LC2121
000000000000509d r .LC2122
00000000000050b2 r .LC2123
00000000000050c4 r .LC2124
00000000000050d4 r .LC2125
00000000000050dc r .LC2126
00000000000050f6 r .LC2127
000000000000510b r .LC2128
0000000000005125 r .LC2129
000000000000512a r .LC2130
000000000000513f r .LC2131
000000000000515b r .LC2132
0000000000005178 r .LC2133
0000000000005196 r .LC2134
0000000000009628 r .LC2135
00000000000051b3 r .LC2136
0000000000009648 r .LC2137
00000000000051cb r .LC2138
00000000000096b8 r .LC2139
00000000000051e2 r .LC2140
0000000000009780 r .LC2141
00000000000097a8 r .LC2142
00000000000000d8 r .LC2143
00000000000051e9 r .LC2145
00000000000051f7 r .LC2146
000000000000520c r .LC2147
000000000000521a r .LC2148
0000000000005221 r .LC2149
00000000000006bd r .LC215
0000000000005227 r .LC2150
00000000000097e8 r .LC2151
000000000000522c r .LC2152
00000000000000a8 r .LC2153
0000000000009858 r .LC2154
0000000000005235 r .LC2155
000000000000523d r .LC2156
0000000000005244 r .LC2157
000000000000524e r .LC2158
0000000000009890 r .LC2159
00000000000006d2 r .LC216
00000000000098f8 r .LC2160
0000000000009918 r .LC2161
0000000000005261 r .LC2162
0000000000005273 r .LC2163
0000000000005290 r .LC2164
0000000000009990 r .LC2165
00000000000052ae r .LC2166
00000000000000ac r .LC2167
00000000000052bc r .LC2168
00000000000000b0 r .LC2169
0000000000000980 r .LC217
0000000000000160 r .LC2170
00000000000000b4 r .LC2171
00000000000099c0 r .LC2173
00000000000052c9 r .LC2174
00000000000052d6 r .LC2175
0000000000009a28 r .LC2176
00000000000006e5 r .LC218
0000000000009a80 r .LC2180
0000000000009ab0 r .LC2181
0000000000009b18 r .LC2182
0000000000009b58 r .LC2183
00000000000052e5 r .LC2184
0000000000009b98 r .LC2185
0000000000005302 r .LC2186
0000000000005319 r .LC2187
0000000000009bc8 r .LC2188
0000000000009bf0 r .LC2189
0000000000000700 r .LC219
0000000000009c20 r .LC2190
0000000000005337 r .LC2191
0000000000009c50 r .LC2192
0000000000005349 r .LC2193
0000000000005361 r .LC2194
0000000000009c78 r .LC2195
0000000000009ca0 r .LC2196
0000000000009ce0 r .LC2197
0000000000000000 r .LC2198
0000000000000000 r .LC2199
00000000000000a3 r .LC22
0000000000000710 r .LC220
0000000000000000 r .LC2200
0000000000000006 r .LC2201
000000000000000b r .LC2202
0000000000000013 r .LC2203
0000000000000000 r .LC2204
0000000000000019 r .LC2205
000000000000001b r .LC2206
0000000000000020 r .LC2207
0000000000000029 r .LC2208
0000000000000040 r .LC2209
000000000000071b r .LC221
0000000000000198 r .LC2210
0000000000000000 r .LC2211
0000000000000000 r .LC2212
000000000000000e r .LC2213
0000000000000025 r .LC2214
0000000000000034 r .LC2215
0000000000000041 r .LC2216
00000000000000e0 r .LC2217
0000000000000050 r .LC2218
0000000000000060 r .LC2219
0000000000000723 r .LC222
000000000000007d r .LC2220
0000000000000083 r .LC2221
0000000000000108 r .LC2222
00000000000000b8 r .LC2223
000000000000008f r .LC2224
00000000000001a0 r .LC2225
000000000000009f r .LC2226
0000000000000000 r .LC2228
0000000000000016 r .LC2229
0000000000000730 r .LC223
0000000000000018 r .LC2230
000000000000002b r .LC2231
0000000000000000 r .LC2232
0000000000000000 r .LC2233
0000000000000000 r .LC2234
0000000000000000 r .LC2235
0000000000000000 r .LC2236
0000000000000000 r .LC2237
0000000000000007 r .LC2238
0000000000000012 r .LC2239
000000000000073a r .LC224
0000000000000017 r .LC2240
0000000000000023 r .LC2241
0000000000000000 r .LC2242
0000000000000030 r .LC2243
000000000000004a r .LC2244
0000000000000140 r .LC2245
00000000000001a8 r .LC2246
0000000000000000 r .LC2247
0000000000000010 r .LC2248
000000000000001c r .LC2249
000000000000073d r .LC225
0000000000000020 r .LC2250
0000000000000027 r .LC2251
0000000000000039 r .LC2252
0000000000000047 r .LC2253
0000000000000000 r .LC2254
000000000000005a r .LC2255
000000000000006e r .LC2256
0000000000000078 r .LC2257
000000000000008f r .LC2258
000000000000009c r .LC2259
0000000000000742 r .LC226
00000000000000ad r .LC2260
00000000000000bd r .LC2261
00000000000000d1 r .LC2262
00000000000000d7 r .LC2263
00000000000001b0 r .LC2264
00000000000000de r .LC2265
00000000000000e2 r .LC2266
00000000000000f7 r .LC2267
00000000000001b8 r .LC2268
00000000000001c0 r .LC2269
0000000000000747 r .LC227
0000000000000101 r .LC2270
0000000000000115 r .LC2272
0000000000009d10 r .LC2273
0000000000009d38 r .LC2274
000000000000537d r .LC2275
0000000000005384 r .LC2276
0000000000005389 r .LC2277
0000000000005390 r .LC2278
0000000000005395 r .LC2279
000000000000074f r .LC228
000000000000539c r .LC2280
00000000000053a0 r .LC2281
00000000000053a7 r .LC2282
00000000000053ae r .LC2283
00000000000053b4 r .LC2284
00000000000001c8 r .LC2285
00000000000053cc r .LC2286
00000000000053e4 r .LC2287
00000000000053f5 r .LC2288
0000000000000753 r .LC229
00000000000053fe r .LC2290
0000000000005415 r .LC2291
00000000000001d0 r .LC2292
0000000000005426 r .LC2293
0000000000005433 r .LC2294
0000000000005440 r .LC2295
0000000000005456 r .LC2296
000000000000545b r .LC2297
0000000000005460 r .LC2298
0000000000005466 r .LC2299
00000000000000ab r .LC23
0000000000000757 r .LC230
0000000000005471 r .LC2300
000000000000547d r .LC2301
0000000000005489 r .LC2302
0000000000005497 r .LC2303
00000000000054a4 r .LC2304
00000000000054af r .LC2305
0000000000009d98 r .LC2306
00000000000001d8 r .LC2307
00000000000054bc r .LC2308
00000000000054d3 r .LC2309
000000000000075d r .LC231
00000000000054ea r .LC2311
00000000000054f4 r .LC2312
0000000000005500 r .LC2313
000000000000550a r .LC2314
0000000000005517 r .LC2315
0000000000009dd8 r .LC2316
000000000000551e r .LC2317
00000000000001e0 r .LC2318
000000000000552d r .LC2319
0000000000000767 r .LC232
0000000000005546 r .LC2320
00000000000000bc r .LC2321
000000000000555f r .LC2322
0000000000005577 r .LC2323
0000000000009e58 r .LC2324
000000000000558f r .LC2325
00000000000055ab r .LC2326
00000000000055c5 r .LC2327
00000000000055ce r .LC2328
00000000000055d8 r .LC2329
0000000000000771 r .LC233
00000000000055e4 r .LC2330
00000000000055f1 r .LC2331
000000000000560f r .LC2332
0000000000009e88 r .LC2333
000000000000562d r .LC2334
000000000000563d r .LC2335
0000000000005650 r .LC2336
0000000000009f40 r .LC2337
0000000000009f68 r .LC2338
000000000000566b r .LC2339
000000000000077d r .LC234
0000000000005689 r .LC2340
00000000000056a7 r .LC2341
00000000000056c3 r .LC2342
00000000000056df r .LC2343
00000000000056fc r .LC2344
000000000000570e r .LC2345
0000000000005729 r .LC2346
000000000000a020 r .LC2347
0000000000005744 r .LC2349
000000000000079a r .LC235
000000000000a048 r .LC2350
000000000000574e r .LC2351
000000000000a070 r .LC2352
000000000000a0a0 r .LC2353
000000000000a0d8 r .LC2354
000000000000a108 r .LC2355
000000000000a128 r .LC2356
000000000000a150 r .LC2357
000000000000a1a8 r .LC2358
000000000000a1c8 r .LC2359
0000000000000004 r .LC236
0000000000005a77 r .LC2360
00000000000001e8 r .LC2361
000000000000a220 r .LC2362
000000000000a248 r .LC2363
000000000000575d r .LC2364
00000000000001f0 r .LC2365
00000000000001f8 r .LC2366
0000000000005775 r .LC2367
000000000000a270 r .LC2368
0000000000005785 r .LC2369
00000000000007a2 r .LC237
000000000000a298 r .LC2370
000000000000a2d8 r .LC2371
000000000000a310 r .LC2372
0000000000005796 r .LC2373
000000000000a398 r .LC2374
00000000000057a8 r .LC2375
000000000000a3e0 r .LC2376
00000000000057c3 r .LC2377
000000000000a418 r .LC2378
000000000000a438 r .LC2379
00000000000007ad r .LC238
000000000000a480 r .LC2380
00000000000057d4 r .LC2381
00000000000057e0 r .LC2382
00000000000057ee r .LC2383
000000000000a4c0 r .LC2384
00000000000057ff r .LC2385
000000000000a4e8 r .LC2386
000000000000a510 r .LC2387
0000000000005819 r .LC2388
000000000000a5a0 r .LC2389
00000000000007bd r .LC239
0000000000005831 r .LC2390
000000000000a5e0 r .LC2391
000000000000a608 r .LC2392
000000000000584c r .LC2393
000000000000a650 r .LC2394
000000000000a698 r .LC2395
000000000000a6b8 r .LC2396
000000000000a778 r .LC2397
0000000000005867 r .LC2398
000000000000a8d8 r .LC2399
00000000000000ac r .LC24
00000000000007c8 r .LC240
000000000000a8f8 r .LC2400
000000000000a988 r .LC2401
000000000000a9b0 r .LC2402
000000000000a9d8 r .LC2403
000000000000aa00 r .LC2404
0000000000005883 r .LC2405
000000000000aa28 r .LC2406
000000000000aa88 r .LC2407
000000000000aaa8 r .LC2408
00000000000058a1 r .LC2409
00000000000007d1 r .LC241
000000000000aad0 r .LC2410
000000000000ab80 r .LC2411
000000000000ac38 r .LC2412
000000000000acb8 r .LC2413
000000000000ad18 r .LC2414
000000000000ad58 r .LC2415
00000000000058bf r .LC2416
000000000000ae28 r .LC2417
000000000000ae48 r .LC2418
000000000000ae98 r .LC2419
00000000000007d8 r .LC242
000000000000af30 r .LC2420
000000000000afb8 r .LC2421
000000000000afe8 r .LC2422
000000000000b180 r .LC2423
000000000000b220 r .LC2424
000000000000b248 r .LC2425
000000000000b348 r .LC2426
000000000000b368 r .LC2427
000000000000b420 r .LC2428
000000000000b470 r .LC2429
00000000000007e3 r .LC243
000000000000b498 r .LC2430
00000000000058cf r .LC2431
000000000000b4e8 r .LC2432
000000000000b550 r .LC2433
000000000000b590 r .LC2434
00000000000058ed r .LC2435
00000000000058fc r .LC2436
000000000000b5c8 r .LC2437
000000000000b7f0 r .LC2438
000000000000b818 r .LC2439
00000000000007ee r .LC244
000000000000b840 r .LC2440
0000000000005913 r .LC2441
000000000000b868 r .LC2442
000000000000b888 r .LC2443
000000000000b928 r .LC2444
000000000000b950 r .LC2445
000000000000b9a8 r .LC2446
000000000000b9d0 r .LC2447
000000000000bab8 r .LC2448
000000000000bae0 r .LC2449
00000000000009d8 r .LC245
0000000000005919 r .LC2450
000000000000bb78 r .LC2451
0000000000005937 r .LC2452
000000000000bc10 r .LC2453
0000000000005951 r .LC2454
000000000000596d r .LC2455
000000000000bc80 r .LC2456
000000000000597b r .LC2457
000000000000bd38 r .LC2458
000000000000bd58 r .LC2459
0000000000000080 r .LC246
000000000000bd80 r .LC2460
000000000000bdb0 r .LC2461
000000000000bdd8 r .LC2462
000000000000be00 r .LC2463
000000000000be28 r .LC2464
0000000000005997 r .LC2465
00000000000059b2 r .LC2466
000000000000be50 r .LC2467
000000000000bec0 r .LC2468
00000000000059bf r .LC2469
00000000000007fa r .LC247
000000000000bee0 r .LC2470
000000000000bfd8 r .LC2471
000000000000c038 r .LC2472
00000000000059cf r .LC2473
00000000000059dd r .LC2474
00000000000059ec r .LC2475
00000000000059f8 r .LC2476
0000000000005a05 r .LC2477
0000000000005a0d r .LC2478
0000000000005a15 r .LC2479
0000000000000a00 r .LC248
0000000000005a1f r .LC2480
0000000000005a2b r .LC2481
0000000000005a34 r .LC2482
0000000000005a3b r .LC2483
0000000000005a49 r .LC2484
0000000000005a5b r .LC2485
0000000000005a66 r .LC2486
0000000000000801 r .LC249
0000000000000008 r .LC25
000000000000080d r .LC250
0000000000000813 r .LC251
000000000000081a r .LC252
0000000000000820 r .LC253
0000000000000008 r .LC254
0000000000000824 r .LC255
0000000000000838 r .LC256
0000000000000844 r .LC257
0000000000000849 r .LC258
0000000000000854 r .LC259
00000000000000b4 r .LC26
0000000000000863 r .LC260
000000000000086e r .LC261
0000000000000a28 r .LC262
0000000000000879 r .LC263
0000000000000887 r .LC264
0000000000000a50 r .LC265
0000000000000895 r .LC266
00000000000008a0 r .LC267
0000000000000a80 r .LC268
00000000000008ac r .LC269
00000000000000ba r .LC27
00000000000008c1 r .LC271
00000000000008d3 r .LC272
00000000000008e8 r .LC273
0000000000000902 r .LC274
0000000000000907 r .LC275
000000000000090c r .LC276
0000000000000913 r .LC277
0000000000000921 r .LC278
000000000000092b r .LC279
00000000000000cc r .LC28
000000000000093e r .LC280
0000000000000ab0 r .LC281
000000000000094d r .LC283
0000000000000ae0 r .LC284
0000000000000b00 r .LC285
000000000000095b r .LC286
0000000000000979 r .LC287
0000000000000b40 r .LC288
0000000000000993 r .LC289
00000000000000d1 r .LC29
00000000000009af r .LC290
00000000000009cd r .LC291
00000000000009eb r .LC292
00000000000009f0 r .LC293
00000000000009f5 r .LC294
00000000000009fa r .LC295
00000000000009ff r .LC296
0000000000000a04 r .LC297
0000000000000a09 r .LC298
0000000000000a0e r .LC299
0000000000000000 r .LC3
0000000000000a13 r .LC300
0000000000000a18 r .LC301
0000000000000a1d r .LC302
0000000000000a22 r .LC303
0000000000000a2a r .LC304
0000000000000a2f r .LC305
0000000000000a37 r .LC306
0000000000000a3f r .LC307
0000000000000a53 r .LC308
0000000000000080 r .LC309
00000000000000d7 r .LC31
0000000000000a5c r .LC310
0000000000000b60 r .LC311
0000000000000a6f r .LC313
0000000000000a83 r .LC314
0000000000000a93 r .LC315
0000000000000000 r .LC317
0000000000000050 r .LC318
0000000000000060 r .LC319
00000000000000e4 r .LC32
0000000000000070 r .LC320
0000000000000080 r .LC321
0000000000000090 r .LC322
00000000000000a0 r .LC323
0000000000000aa6 r .LC324
0000000000000ab9 r .LC325
0000000000000abe r .LC326
0000000000000ad2 r .LC327
000000000000000c r .LC328
0000000000000ad7 r .LC330
0000000000000ade r .LC331
0000000000000aef r .LC332
0000000000000afa r .LC333
0000000000000b01 r .LC334
0000000000000b0c r .LC335
0000000000000b14 r .LC336
0000000000000b1b r .LC337
0000000000000b25 r .LC338
0000000000000b2c r .LC339
00000000000000dd r .LC34
0000000000000c00 r .LC340
0000000000000b3a r .LC341
0000000000000b43 r .LC342
0000000000000b4a r .LC343
0000000000000b50 r .LC344
0000000000000010 r .LC345
0000000000000b57 r .LC346
0000000000000b5f r .LC347
0000000000000c80 r .LC348
0000000000000014 r .LC349
00000000000000e3 r .LC35
0000000000000b65 r .LC350
0000000000000018 r .LC351
0000000000000b6b r .LC352
0000000000000b6f r .LC353
0000000000000b72 r .LC354
00000000000000b0 r .LC356
0000000000000b79 r .LC358
0000000000000b8c r .LC359
00000000000000f8 r .LC36
0000000000000088 r .LC363
0000000000000090 r .LC364
0000000000000098 r .LC365
0000000000000b97 r .LC366
0000000000000bb0 r .LC367
0000000000000bb6 r .LC368
0000000000000ca8 r .LC369
0000000000000040 r .LC37
0000000000000bce r .LC370
0000000000000bd6 r .LC371
0000000000000bdc r .LC372
0000000000000be4 r .LC373
0000000000000bed r .LC374
0000000000000bf6 r .LC375
0000000000000bff r .LC376
0000000000000c06 r .LC377
0000000000000c13 r .LC378
0000000000000c1c r .LC379
00000000000000ff r .LC38
0000000000000c25 r .LC380
0000000000000c2e r .LC381
0000000000000c31 r .LC382
000000000000001c r .LC383
0000000000000c3c r .LC384
0000000000000c4b r .LC385
0000000000000c57 r .LC386
0000000000000020 r .LC387
0000000000000c63 r .LC388
0000000000000c71 r .LC389
000000000000010a r .LC39
0000000000000c81 r .LC390
0000000000000c9c r .LC391
0000000000000ca4 r .LC392
0000000000000cb3 r .LC393
0000000000000cb6 r .LC394
0000000000000cc5 r .LC395
0000000000000cd5 r .LC396
0000000000000ce5 r .LC397
0000000000000cf4 r .LC398
0000000000000d04 r .LC399
0000000000000000 r .LC4
0000000000000113 r .LC40
0000000000000d14 r .LC400
0000000000000d1b r .LC401
0000000000000d2a r .LC402
0000000000000d39 r .LC403
0000000000000d49 r .LC404
0000000000000d59 r .LC405
0000000000000d5d r .LC406
0000000000000d6c r .LC407
0000000000000d7c r .LC408
0000000000000d8c r .LC409
000000000000012e r .LC41
0000000000000d93 r .LC410
0000000000000da2 r .LC411
0000000000000db2 r .LC412
0000000000000dc2 r .LC413
0000000000000dd3 r .LC414
0000000000000dd9 r .LC415
0000000000000dee r .LC416
0000000000000df1 r .LC417
0000000000000e03 r .LC418
0000000000000e15 r .LC419
0000000000000130 r .LC42
0000000000000e2b r .LC420
0000000000000e34 r .LC421
0000000000000e47 r .LC422
0000000000000e59 r .LC423
0000000000000e6b r .LC424
0000000000000e7d r .LC425
0000000000000e90 r .LC426
0000000000000ea3 r .LC427
0000000000000eb6 r .LC428
0000000000000ec9 r .LC429
0000000000000138 r .LC43
0000000000000ee3 r .LC430
0000000000000eea r .LC431
0000000000000efc r .LC432
0000000000000d58 r .LC433
0000000000000d80 r .LC434
0000000000000f19 r .LC435
0000000000000f22 r .LC436
0000000000000f2b r .LC437
0000000000000f35 r .LC438
0000000000000f3f r .LC439
000000000000013f r .LC44
0000000000000f49 r .LC440
0000000000000f4e r .LC441
0000000000000f5c r .LC442
0000000000000f66 r .LC443
0000000000000f6b r .LC444
0000000000000f79 r .LC445
0000000000000f83 r .LC446
0000000000000f8d r .LC447
0000000000000f99 r .LC448
0000000000000da8 r .LC449
0000000000000144 r .LC45
0000000000000de8 r .LC450
0000000000000fa6 r .LC451
0000000000000fab r .LC452
0000000000000fbe r .LC453
0000000000000fc7 r .LC454
0000000000000fd3 r .LC455
0000000000000fdd r .LC456
0000000000000ff0 r .LC457
0000000000000ffb r .LC458
0000000000001007 r .LC459
000000000000014a r .LC46
0000000000001012 r .LC460
000000000000101d r .LC461
0000000000001026 r .LC462
000000000000102f r .LC463
000000000000104a r .LC464
0000000000001052 r .LC465
0000000000000e20 r .LC466
000000000000105c r .LC467
000000000000106a r .LC468
0000000000001075 r .LC469
0000000000000152 r .LC47
0000000000001082 r .LC470
0000000000001091 r .LC471
00000000000010a3 r .LC472
00000000000010b3 r .LC473
00000000000010cc r .LC474
00000000000010dd r .LC475
00000000000010ef r .LC476
0000000000001100 r .LC477
0000000000001111 r .LC478
0000000000001120 r .LC479
0000000000000160 r .LC48
0000000000000ee8 r .LC480
000000000000112f r .LC481
0000000000001136 r .LC482
000000000000113b r .LC483
0000000000001147 r .LC484
0000000000000f20 r .LC485
0000000000001180 r .LC486
0000000000001155 r .LC487
0000000000001240 r .LC488
00000000000012a8 r .LC489
00000000000000d0 r .LC49
00000000000012e0 r .LC490
0000000000001310 r .LC491
000000000000115c r .LC492
0000000000001358 r .LC493
0000000000001558 r .LC494
00000000000000a0 r .LC495
0000000000001818 r .LC496
0000000000001860 r .LC497
00000000000018a0 r .LC498
00000000000018c0 r .LC499
0000000000000000 r .LC5
0000000000000164 r .LC50
0000000000001168 r .LC500
0000000000001176 r .LC501
000000000000118b r .LC502
0000000000001940 r .LC503
00000000000011a7 r .LC504
0000000000001960 r .LC505
0000000000001988 r .LC506
00000000000011c5 r .LC507
00000000000019a8 r .LC508
00000000000011e3 r .LC509
0000000000000000 r .LC51
00000000000019e8 r .LC510
00000000000011fb r .LC511
0000000000001213 r .LC512
0000000000001227 r .LC513
0000000000001a30 r .LC514
0000000000001235 r .LC515
0000000000001a98 r .LC516
0000000000001240 r .LC517
000000000000125d r .LC518
0000000000001ac8 r .LC519
0000000000000070 r .LC52
0000000000001af0 r .LC520
0000000000001268 r .LC521
0000000000001b18 r .LC522
0000000000001274 r .LC523
0000000000001b40 r .LC524
000000000000128e r .LC525
0000000000001c18 r .LC526
0000000000001c50 r .LC527
0000000000000024 r .LC528
0000000000000054 r .LC529
0000000000000098 r .LC53
0000000000001299 r .LC530
00000000000012a5 r .LC531
00000000000012ad r .LC532
0000000000001c78 r .LC533
00000000000012b6 r .LC534
00000000000012bf r .LC535
00000000000000a8 r .LC536
00000000000012c7 r .LC537
00000000000012d1 r .LC538
00000000000012da r .LC539
00000000000000c0 r .LC54
00000000000000b0 r .LC540
00000000000012e5 r .LC541
00000000000012ef r .LC542
00000000000012f6 r .LC543
0000000000001ca8 r .LC544
00000000000012fd r .LC545
0000000000001310 r .LC546
00000000000000b8 r .LC547
000000000000132d r .LC548
0000000000001339 r .LC549
0000000000000000 r .LC55
0000000000001353 r .LC550
0000000000001360 r .LC551
0000000000001cd0 r .LC552
000000000000137d r .LC553
000000000000138c r .LC554
0000000000001397 r .LC556
0000000000001cf8 r .LC557
00000000000013a3 r .LC559
00000000000000e8 r .LC56
0000000000001d48 r .LC560
00000000000013b0 r .LC561
00000000000013bb r .LC562
0000000000001e68 r .LC563
0000000000001fc0 r .LC564
0000000000001fe0 r .LC565
00000000000013d1 r .LC566
0000000000000050 r .LC567
00000000000013dd r .LC568
00000000000013ea r .LC569
0000000000000168 r .LC57
00000000000013f7 r .LC570
0000000000002008 r .LC571
000000000000140a r .LC572
0000000000001426 r .LC573
000000000000143a r .LC574
000000000000144e r .LC575
0000000000000028 r .LC576
000000000000145d r .LC577
0000000000001465 r .LC578
0000000000001473 r .LC579
000000000000016b r .LC58
000000000000147b r .LC580
0000000000001490 r .LC581
00000000000014a8 r .LC582
00000000000014bf r .LC583
00000000000014c8 r .LC584
00000000000014e2 r .LC585
00000000000014ea r .LC586
00000000000014f2 r .LC587
0000000000002140 r .LC588
00000000000014fa r .LC589
0000000000000177 r .LC59
0000000000002178 r .LC590
00000000000000dc r .LC591
0000000000000028 r .LC592
0000000000001504 r .LC593
000000000000150a r .LC594
0000000000002198 r .LC595
000000000000151a r .LC596
0000000000001521 r .LC597
0000000000001529 r .LC598
0000000000001531 r .LC599
000000000000000e r .LC6
0000000000000010 r .LC60
0000000000001540 r .LC600
0000000000001546 r .LC601
000000000000155e r .LC602
00000000000021c0 r .LC603
0000000000001569 r .LC604
0000000000001579 r .LC605
0000000000002378 r .LC606
000000000000158e r .LC607
0000000000001598 r .LC608
00000000000000c0 r .LC609
0000000000000185 r .LC61
000000000000159d r .LC610
00000000000023a0 r .LC611
00000000000015ae r .LC612
00000000000023f8 r .LC613
00000000000015bb r .LC614
0000000000002420 r .LC615
00000000000015c4 r .LC616
00000000000015c9 r .LC617
00000000000015d9 r .LC618
00000000000015f0 r .LC619
00000000000015f9 r .LC620
000000000000002c r .LC621
0000000000002490 r .LC622
000000000000160a r .LC623
0000000000001615 r .LC624
0000000000001630 r .LC625
000000000000163d r .LC626
000000000000164a r .LC627
000000000000164f r .LC628
0000000000000068 r .LC629
0000000000000188 r .LC63
0000000000000030 r .LC630
0000000000001662 r .LC631
000000000000167c r .LC632
0000000000001685 r .LC633
0000000000000034 r .LC634
0000000000000038 r .LC635
0000000000001692 r .LC636
00000000000016ae r .LC637
00000000000016b3 r .LC638
00000000000016b9 r .LC639
00000000000001a4 r .LC64
00000000000016bd r .LC640
00000000000016c3 r .LC641
00000000000024b8 r .LC642
00000000000016cf r .LC643
0000000000002510 r .LC644
00000000000016e1 r .LC645
0000000000002538 r .LC646
00000000000016e9 r .LC647
00000000000016f1 r .LC648
0000000000001705 r .LC649
0000000000000138 r .LC65
000000000000170d r .LC650
0000000000001715 r .LC651
00000000000025f8 r .LC652
000000000000171b r .LC653
0000000000001731 r .LC654
0000000000001737 r .LC655
000000000000173e r .LC656
0000000000001748 r .LC657
0000000000001753 r .LC658
000000000000175e r .LC659
0000000000000160 r .LC66
00000000000026a8 r .LC660
0000000000001766 r .LC661
000000000000177c r .LC662
0000000000002760 r .LC663
0000000000002788 r .LC664
00000000000027b0 r .LC665
00000000000027d8 r .LC666
0000000000002800 r .LC667
000000000000178a r .LC668
000000000000178f r .LC669
00000000000001b5 r .LC67
0000000000001794 r .LC670
00000000000000c8 r .LC671
0000000000001799 r .LC672
00000000000017a7 r .LC673
00000000000017af r .LC674
00000000000017b7 r .LC675
0000000000002828 r .LC676
0000000000002850 r .LC677
0000000000002878 r .LC678
00000000000028b0 r .LC679
00000000000001cf r .LC68
00000000000028d0 r .LC680
0000000000002958 r .LC681
00000000000017bf r .LC682
00000000000017da r .LC683
00000000000017e7 r .LC684
00000000000017f9 r .LC685
0000000000001801 r .LC686
000000000000180e r .LC687
0000000000001822 r .LC688
000000000000182e r .LC689
00000000000001e3 r .LC69
0000000000001848 r .LC690
000000000000185b r .LC691
000000000000186e r .LC692
0000000000001881 r .LC693
0000000000002990 r .LC694
00000000000029d0 r .LC695
000000000000189a r .LC696
00000000000018a1 r .LC697
00000000000018a8 r .LC698
00000000000018b2 r .LC699
000000000000001a r .LC7
00000000000001fd r .LC70
00000000000018b9 r .LC700
00000000000018c1 r .LC701
00000000000018c8 r .LC702
00000000000018e6 r .LC703
00000000000018f0 r .LC704
00000000000018f7 r .LC705
00000000000018fe r .LC706
0000000000001912 r .LC707
0000000000001919 r .LC708
0000000000001932 r .LC709
0000000000000213 r .LC71
000000000000012c r .LC710
00000000000000d0 r .LC711
0000000000001937 r .LC712
0000000000001955 r .LC713
00000000000029f8 r .LC714
000000000000195f r .LC715
000000000000196b r .LC716
0000000000001972 r .LC717
0000000000001979 r .LC718
0000000000001990 r .LC719
0000000000002b08 r .LC720
000000000000199e r .LC721
00000000000019a4 r .LC722
00000000000019ac r .LC723
00000000000019b5 r .LC724
00000000000019bd r .LC725
00000000000019c6 r .LC726
00000000000019cf r .LC727
00000000000019df r .LC728
00000000000019e8 r .LC729
0000000000000020 r .LC73
00000000000019f1 r .LC730
0000000000001a01 r .LC731
0000000000001a0a r .LC732
0000000000001a13 r .LC733
0000000000001a20 r .LC734
0000000000001a3c r .LC735
0000000000001a4a r .LC736
0000000000001a58 r .LC737
0000000000001a70 r .LC738
0000000000001a7e r .LC739
0000000000000018 r .LC74
0000000000001a8c r .LC740
0000000000001a91 r .LC741
0000000000001a97 r .LC742
0000000000001aa9 r .LC743
0000000000001ac2 r .LC744
0000000000001ad7 r .LC745
0000000000002b88 r .LC746
0000000000001ae5 r .LC747
0000000000001aec r .LC748
0000000000001af3 r .LC749
0000000000000020 r .LC75
0000000000001afa r .LC750
0000000000001b01 r .LC751
0000000000001b08 r .LC752
0000000000001b1f r .LC753
0000000000002bf0 r .LC754
0000000000002c40 r .LC755
0000000000001b39 r .LC756
0000000000001b42 r .LC757
0000000000001b4e r .LC758
0000000000000028 r .LC76
0000000000001b58 r .LC760
0000000000001b60 r .LC761
0000000000001b7d r .LC762
0000000000002c70 r .LC763
0000000000001b96 r .LC764
0000000000001baa r .LC765
0000000000001bb5 r .LC766
0000000000001bbc r .LC767
0000000000001bd3 r .LC768
0000000000001be1 r .LC769
0000000000000030 r .LC77
0000000000002ce8 r .LC770
0000000000001be8 r .LC771
0000000000001bf1 r .LC772
0000000000002d40 r .LC773
0000000000001bf9 r .LC774
00000000000000d8 r .LC775
0000000000001c10 r .LC776
0000000000001c13 r .LC777
0000000000001c24 r .LC778
0000000000001c2e r .LC779
0000000000000038 r .LC78
0000000000002d90 r .LC780
0000000000001c3d r .LC781
0000000000001c43 r .LC782
0000000000001c57 r .LC783
0000000000002de8 r .LC784
0000000000002e08 r .LC785
0000000000001c61 r .LC786
0000000000002e30 r .LC787
0000000000001c7f r .LC788
0000000000001c86 r .LC789
0000000000000040 r .LC79
0000000000001c90 r .LC790
0000000000001cad r .LC791
0000000000001cc0 r .LC792
0000000000002e98 r .LC793
0000000000001ccb r .LC794
0000000000002ec8 r .LC795
0000000000001ce1 r .LC796
0000000000002fd8 r .LC797
0000000000003018 r .LC798
0000000000003040 r .LC799
000000000000001e r .LC8
0000000000000048 r .LC80
00000000000030e0 r .LC800
000000000000003c r .LC801
0000000000001cfe r .LC802
0000000000003108 r .LC803
0000000000001d07 r .LC804
0000000000001d1b r .LC805
0000000000001d23 r .LC806
0000000000001d2b r .LC807
0000000000001d37 r .LC808
0000000000001d41 r .LC809
0000000000000050 r .LC81
0000000000001d4a r .LC810
0000000000001d56 r .LC811
0000000000003130 r .LC812
0000000000001d5e r .LC813
0000000000001d6d r .LC814
0000000000003158 r .LC815
0000000000001d76 r .LC816
0000000000001d81 r .LC817
0000000000001d94 r .LC818
00000000000031b0 r .LC819
0000000000000058 r .LC82
00000000000031e8 r .LC820
0000000000001da5 r .LC821
0000000000003210 r .LC822
0000000000001db0 r .LC823
0000000000003298 r .LC824
0000000000003330 r .LC825
0000000000001db8 r .LC826
0000000000003380 r .LC827
0000000000001dbd r .LC828
00000000000033a8 r .LC829
0000000000000060 r .LC83
0000000000003450 r .LC830
00000000000034d8 r .LC831
0000000000001dcd r .LC832
0000000000003510 r .LC833
0000000000003530 r .LC834
0000000000001dd5 r .LC835
0000000000001de8 r .LC836
0000000000003558 r .LC837
0000000000001e06 r .LC838
0000000000003580 r .LC839
000000000000022d r .LC84
00000000000035a8 r .LC840
0000000000001e14 r .LC841
0000000000001e19 r .LC842
0000000000001e1e r .LC843
0000000000001e27 r .LC844
0000000000001e2e r .LC845
0000000000001e41 r .LC846
0000000000001e56 r .LC847
00000000000035c8 r .LC848
0000000000001e64 r .LC849
0000000000000188 r .LC85
0000000000001e78 r .LC850
0000000000001e85 r .LC852
0000000000001e8c r .LC853
0000000000000040 r .LC854
00000000000000e0 r .LC855
0000000000001ea4 r .LC856
0000000000001eab r .LC857
0000000000001eb1 r .LC858
0000000000001eb6 r .LC859
0000000000000000 r .LC86
0000000000003638 r .LC860
0000000000001ec4 r .LC861
0000000000001ed3 r .LC862
0000000000001ef0 r .LC863
0000000000001efc r .LC864
0000000000000028 r .LC865
0000000000001f12 r .LC866
0000000000001f23 r .LC867
0000000000001f2d r .LC868
0000000000001f3b r .LC869
0000000000000249 r .LC87
0000000000001f44 r .LC870
0000000000001f5b r .LC871
0000000000003698 r .LC872
0000000000001f73 r .LC873
0000000000001f8b r .LC874
0000000000001fa3 r .LC875
00000000000036c0 r .LC876
00000000000000e8 r .LC877
0000000000001fbe r .LC878
0000000000001fc2 r .LC879
0000000000000068 r .LC88
0000000000001fcf r .LC880
0000000000003768 r .LC881
0000000000001fdb r .LC882
0000000000001ff0 r .LC883
0000000000001ffe r .LC884
00000000000037a0 r .LC885
0000000000002012 r .LC886
000000000000201f r .LC887
0000000000002029 r .LC888
00000000000037c8 r .LC889
0000000000000252 r .LC89
000000000000203e r .LC890
0000000000000044 r .LC891
000000000000205c r .LC892
0000000000002066 r .LC893
00000000000037f0 r .LC894
0000000000003838 r .LC895
000000000000207b r .LC896
0000000000002085 r .LC897
0000000000003888 r .LC898
00000000000038d0 r .LC899
0000000000000025 r .LC9
00000000000001b0 r .LC90
00000000000000c0 r .LC900
000000000000209a r .LC901
00000000000020a4 r .LC902
00000000000038f0 r .LC903
00000000000020b9 r .LC904
00000000000020c3 r .LC905
0000000000003950 r .LC906
00000000000020d8 r .LC907
00000000000020ec r .LC908
00000000000020f6 r .LC909
00000000000001e0 r .LC91
0000000000003980 r .LC910
000000000000210b r .LC911
00000000000039a0 r .LC912
00000000000039f0 r .LC913
0000000000002123 r .LC914
0000000000002134 r .LC915
0000000000002148 r .LC916
0000000000002157 r .LC917
0000000000002165 r .LC918
0000000000002173 r .LC919
000000000000025e r .LC92
0000000000003a18 r .LC920
0000000000002190 r .LC921
0000000000000048 r .LC922
0000000000002198 r .LC923
000000000000004c r .LC924
000000000000219e r .LC925
0000000000003a50 r .LC926
00000000000021a4 r .LC927
00000000000021a7 r .LC928
00000000000021ae r .LC929
0000000000000070 r .LC93
00000000000021b1 r .LC930
00000000000000b8 r .LC931
00000000000021b6 r .LC932
00000000000021b8 r .LC933
00000000000021ba r .LC934
00000000000021bc r .LC935
0000000000003a80 r .LC936
00000000000000f0 r .LC937
00000000000021c3 r .LC938
00000000000021c5 r .LC939
000000000000026a r .LC94
0000000000003aa8 r .LC940
00000000000021c7 r .LC941
00000000000021d8 r .LC942
00000000000021dc r .LC943
00000000000021ea r .LC944
0000000000003ad8 r .LC945
00000000000021f1 r .LC946
00000000000021f5 r .LC947
00000000000021f9 r .LC948
00000000000021fd r .LC949
0000000000000276 r .LC95
0000000000002201 r .LC950
0000000000002205 r .LC951
00000000000000d0 r .LC952
0000000000000050 r .LC953
0000000000002219 r .LC954
0000000000002222 r .LC955
0000000000002229 r .LC956
0000000000002232 r .LC957
0000000000002244 r .LC958
0000000000002249 r .LC959
0000000000000078 r .LC96
0000000000002252 r .LC960
0000000000003bb8 r .LC961
000000000000225f r .LC962
0000000000002277 r .LC963
0000000000003bd8 r .LC964
0000000000002286 r .LC965
0000000000002292 r .LC966
0000000000003ca8 r .LC967
00000000000022a3 r .LC968
00000000000022af r .LC969
00000000000000b0 r .LC97
0000000000003ce0 r .LC970
00000000000022c3 r .LC971
00000000000022cb r .LC972
00000000000022d0 r .LC973
00000000000022d8 r .LC974
00000000000022f4 r .LC975
00000000000022fc r .LC976
0000000000002301 r .LC977
0000000000002309 r .LC978
0000000000002311 r .LC979
0000000000000282 r .LC98
0000000000002322 r .LC980
0000000000002330 r .LC981
000000000000233c r .LC982
0000000000002343 r .LC983
000000000000234a r .LC984
0000000000002356 r .LC985
000000000000235c r .LC986
0000000000002362 r .LC987
000000000000236b r .LC988
0000000000002379 r .LC989
000000000000028d r .LC99
0000000000002383 r .LC990
000000000000238b r .LC991
0000000000002395 r .LC992
000000000000239d r .LC993
00000000000023a7 r .LC994
00000000000023b1 r .LC995
00000000000023bd r .LC996
00000000000023c2 r .LC997
00000000000023cc r .LC998
00000000000023dd r .LC999
0000000000000000 V DW.ref.__gxx_personality_v0
0000000000000010 B GImGuiDemoMarkerCallback
0000000000000008 B GImGuiDemoMarkerCallbackUserData
                 U _Unwind_Resume
0000000000000d30 b _ZGVZL16DemoWindowTablesvE16outer_size_value
0000000000000d48 b _ZGVZL16DemoWindowTablesvE5items
0000000000000d00 b _ZGVZL16DemoWindowTablesvE5items_0
0000000000000ce8 b _ZGVZL16DemoWindowTablesvE9selection
0000000000000288 b _ZGVZL17ShowExampleAppLogPbE3log
00000000000012e0 b _ZGVZL21DemoWindowWidgetsTabsvE11active_tabs
00000000000003e0 b _ZGVZL21ShowExampleAppConsolePbE7console
0000000000000130 b _ZGVZL22ShowExampleAppLongTextPbE3log
00000000000000a8 b _ZGVZL23ShowExampleAppDocumentsPbE3app
0000000000000fd0 b _ZGVZL26DemoWindowWidgetsTextInputvE6my_str
0000000000001810 b _ZGVZL27DemoWindowWidgetsComboBoxesvE6filter
00000000000011a0 b _ZGVZL27DemoWindowWidgetsTextFiltervE6filter
0000000000000018 b _ZGVZL27ShowExampleAppAssetsBrowserPbE14assets_browser
0000000000000158 b _ZGVZL28ShowExampleAppPropertyEditorPbP19ImGuiDemoWindowDataE15property_editor
0000000000000100 b _ZGVZL29ShowExampleAppCustomRenderingPbE6points
00000000000013b0 b _ZGVZL40DemoWindowWidgetsSelectionAndMultiSelectP19ImGuiDemoWindowDataE15selections_data
00000000000014b0 b _ZGVZL40DemoWindowWidgetsSelectionAndMultiSelectP19ImGuiDemoWindowDataE3dlb
0000000000001590 b _ZGVZL40DemoWindowWidgetsSelectionAndMultiSelectP19ImGuiDemoWindowDataE5items
0000000000001358 b _ZGVZL40DemoWindowWidgetsSelectionAndMultiSelectP19ImGuiDemoWindowDataE5items_1
00000000000015f0 b _ZGVZL40DemoWindowWidgetsSelectionAndMultiSelectP19ImGuiDemoWindowDataE9selection_0
00000000000015b0 b _ZGVZL40DemoWindowWidgetsSelectionAndMultiSelectP19ImGuiDemoWindowDataE9selection_1
0000000000001550 b _ZGVZL40DemoWindowWidgetsSelectionAndMultiSelectP19ImGuiDemoWindowDataE9selection_2
0000000000001468 b _ZGVZL40DemoWindowWidgetsSelectionAndMultiSelectP19ImGuiDemoWindowDataE9selection_3
0000000000001378 b _ZGVZL40DemoWindowWidgetsSelectionAndMultiSelectP19ImGuiDemoWindowDataE9selection_4
0000000000001308 b _ZGVZL40DemoWindowWidgetsSelectionAndMultiSelectP19ImGuiDemoWindowDataE9selection_5
0000000000001c18 b _ZGVZN5ImGui14ShowDemoWindowEPbE9demo_data
00000000000007a0 b _ZGVZN5ImGui15ShowStyleEditorEP10ImGuiStyleE15ref_saved_style
0000000000000660 b _ZGVZN5ImGui15ShowStyleEditorEP10ImGuiStyleE6filter
0000000000000940 t _ZL10HelpMarkerPKc
0000000000000220 d _ZL12ExampleNames
0000000000012630 t _ZL16DemoWindowInputsv
000000000000d240 t _ZL16DemoWindowLayoutv
000000000000b9d0 t _ZL16DemoWindowPopupsv
0000000000013ae0 t _ZL16DemoWindowTablesv
000000000000009a t _ZL16DemoWindowTablesv.cold
0000000000001850 t _ZL16PathConcaveShapeP10ImDrawListfff
0000000000004450 t _ZL17DemoWindowColumnsv
0000000000000000 t _ZL17DemoWindowColumnsv.cold
0000000000001350 t _ZL17DemoWindowMenuBarP19ImGuiDemoWindowData.constprop.0
000000000001d760 t _ZL17DemoWindowWidgetsP19ImGuiDemoWindowData.constprop.0
0000000000000292 t _ZL17DemoWindowWidgetsP19ImGuiDemoWindowData.constprop.0.cold
00000000000001a0 t _ZL19ShowExampleMenuFilev
00000000000006b0 t _ZL20EditTableSizingFlagsPi
00000000000039c0 t _ZL21DemoWindowWidgetsTabsv
0000000000009af0 t _ZL22DemoWindowWidgetsBasicv
0000000000000b80 t _ZL22ExampleTree_CreateNodePKciP15ExampleTreeNode
0000000000000000 t _ZL23ExampleTree_DestroyNodeP15ExampleTreeNode
0000000000001a10 t _ZL23ShowExampleAppDockSpacePb.constprop.0
0000000000005500 t _ZL23ShowExampleAppDocumentsPb.constprop.0
0000000000000050 t _ZL23ShowExampleAppDocumentsPb.constprop.0.cold
0000000000006f80 t _ZL26DemoWindowWidgetsDataTypesv
000000000000c7a0 t _ZL26DemoWindowWidgetsTextInputv
0000000000000360 d _ZL26ExampleTreeNodeMemberInfos
0000000000002e50 t _ZL26ExampleTree_CreateDemoTreev
0000000000004f80 t _ZL27DemoWindowWidgetsComboBoxesv
0000000000000028 t _ZL27DemoWindowWidgetsComboBoxesv.cold
000000000000a910 t _ZL28DemoWindowWidgetsDragAndDropv
000000000000b020 t _ZL28DemoWindowWidgetsSelectablesv
00000000000008d0 t _ZL28EditTabBarFittingPolicyFlagsPi
00000000000107a0 t _ZL29ShowExampleAppCustomRenderingPb.constprop.0
0000000000000cd0 t _ZL31ShowExampleAppConstrainedResizePb.constprop.0
0000000000008e80 t _ZL32DemoWindowWidgetsColorAndPickersv
0000000000008170 t _ZL33DemoWindowWidgetsQueryingStatusesv
000000000001a770 t _ZL40DemoWindowWidgetsSelectionAndMultiSelectP19ImGuiDemoWindowData.constprop.0
00000000000000e1 t _ZL40DemoWindowWidgetsSelectionAndMultiSelectP19ImGuiDemoWindowData.constprop.0.cold
                 U _ZN10ImDrawList10AddEllipseERK6ImVec2S2_jfif
                 U _ZN10ImDrawList11AddPolylineEPK6ImVec2ijif
                 U _ZN10ImDrawList11AddTriangleERK6ImVec2S2_S2_jf
                 U _ZN10ImDrawList11PopClipRectEv
                 U _ZN10ImDrawList12PushClipRectERK6ImVec2S2_b
                 U _ZN10ImDrawList13AddNgonFilledERK6ImVec2fji
                 U _ZN10ImDrawList13AddRectFilledERK6ImVec2S2_jfi
                 U _ZN10ImDrawList14AddBezierCubicERK6ImVec2S2_S2_S2_jfi
                 U _ZN10ImDrawList15AddCircleFilledERK6ImVec2fji
                 U _ZN10ImDrawList16AddEllipseFilledERK6ImVec2S2_jfi
                 U _ZN10ImDrawList17AddTriangleFilledERK6ImVec2S2_S2_j
                 U _ZN10ImDrawList18AddBezierQuadraticERK6ImVec2S2_S2_jfi
                 U _ZN10ImDrawList19AddConvexPolyFilledEPK6ImVec2ij
                 U _ZN10ImDrawList20AddConcavePolyFilledEPK6ImVec2ij
                 U _ZN10ImDrawList23AddRectFilledMultiColorERK6ImVec2S2_jjjj
                 U _ZN10ImDrawList26PathBezierQuadraticCurveToERK6ImVec2S2_i
                 U _ZN10ImDrawList7AddLineERK6ImVec2S2_jf
                 U _ZN10ImDrawList7AddNgonERK6ImVec2fjif
                 U _ZN10ImDrawList7AddRectERK6ImVec2S2_jfif
                 U _ZN10ImDrawList7AddTextEP6ImFontfRK6ImVec2jPKcS6_fPK6ImVec4
                 U _ZN10ImDrawList7AddTextERK6ImVec2jPKcS4_
                 U _ZN10ImDrawList9AddCircleERK6ImVec2fjif
                 U _ZN10ImDrawList9PathArcToERK6ImVec2fffi
                 U _ZN10ImGuiStyleC1Ev
0000000000000000 W _ZN12ExampleAsset20CompareWithSortSpecsEPKvS1_
0000000000000000 B _ZN12ExampleAsset20s_current_sort_specsE
                 U _ZN12ImGuiStorage7SetBoolEjb
0000000000000990 t _ZN12_GLOBAL__N_16MyItem20CompareWithSortSpecsEPKvS2_
0000000000000f88 b _ZN12_GLOBAL__N_16MyItem20s_current_sort_specsE
0000000000000000 W _ZN13ExampleAppLog4DrawEPKcPb
0000000000000000 W _ZN13ExampleAppLog6AddLogEPKcz
0000000000000000 W _ZN13ExampleAppLogD1Ev
0000000000000000 W _ZN13ExampleAppLogD2Ev
0000000000000000 n _ZN13ExampleAppLogD5Ev
                 U _ZN15ImGuiTextBuffer11EmptyStringE
                 U _ZN15ImGuiTextBuffer7appendfEPKcz
                 U _ZN15ImGuiTextBuffer8appendfvEPKcP13__va_list_tag
0000000000000000 W _ZN15ImGuiTextBufferD1Ev
0000000000000000 W _ZN15ImGuiTextBufferD2Ev
0000000000000000 n _ZN15ImGuiTextBufferD5Ev
                 U _ZN15ImGuiTextFilter4DrawEPKcf
                 U _ZN15ImGuiTextFilter5BuildEv
                 U _ZN15ImGuiTextFilterC1EPKc
0000000000000000 W _ZN15ImGuiTextFilterD1Ev
0000000000000000 W _ZN15ImGuiTextFilterD2Ev
0000000000000000 n _ZN15ImGuiTextFilterD5Ev
                 U _ZN16ImGuiListClipper19IncludeItemsByIndexEii
                 U _ZN16ImGuiListClipper3EndEv
                 U _ZN16ImGuiListClipper4StepEv
                 U _ZN16ImGuiListClipper5BeginEif
                 U _ZN16ImGuiListClipperC1Ev
                 U _ZN16ImGuiListClipperD1Ev
0000000000000000 W _ZN17ExampleAppConsole11ExecCommandEPKc
0000000000000000 W _ZN17ExampleAppConsole16TextEditCallbackEP26ImGuiInputTextCallbackData
0000000000000000 W _ZN17ExampleAppConsole20TextEditCallbackStubEP26ImGuiInputTextCallbackData
0000000000000000 W _ZN17ExampleAppConsole4DrawEPKcPb
0000000000000000 W _ZN17ExampleAppConsole6AddLogEPKcz
0000000000000000 W _ZN17ExampleAppConsoleD1Ev
0000000000000000 W _ZN17ExampleAppConsoleD2Ev
0000000000000000 n _ZN17ExampleAppConsoleD5Ev
0000000000000000 W _ZN18ExampleDualListBox19CompareItemsByValueEPKvS1_
0000000000000000 W _ZN18ExampleDualListBox4ShowEv
0000000000000000 W _ZN18ExampleDualListBoxD1Ev
0000000000000000 W _ZN18ExampleDualListBoxD2Ev
0000000000000000 n _ZN18ExampleDualListBoxD5Ev
                 U _ZN18ImDrawListSplitter17SetCurrentChannelEP10ImDrawListi
                 U _ZN18ImDrawListSplitter5MergeEP10ImDrawList
                 U _ZN18ImDrawListSplitter5SplitEP10ImDrawListi
0000000000000000 W _ZN19ExampleAppDocumentsD1Ev
0000000000000000 W _ZN19ExampleAppDocumentsD2Ev
0000000000000000 n _ZN19ExampleAppDocumentsD5Ev
0000000000000000 W _ZN19ImGuiDemoWindowDataD1Ev
0000000000000000 W _ZN19ImGuiDemoWindowDataD2Ev
0000000000000000 n _ZN19ImGuiDemoWindowDataD5Ev
0000000000000000 W _ZN20ExampleAssetsBrowser4DrawEPKcPb
0000000000000000 W _ZN20ExampleAssetsBrowserD1Ev
0000000000000000 W _ZN20ExampleAssetsBrowserD2Ev
0000000000000000 n _ZN20ExampleAssetsBrowserD5Ev
0000000000000000 W _ZN24ExampleAppPropertyEditor12DrawTreeNodeEP15ExampleTreeNode
0000000000000000 W _ZN24ExampleAppPropertyEditor4DrawEP15ExampleTreeNode
0000000000000000 W _ZN24ExampleAppPropertyEditorD1Ev
0000000000000000 W _ZN24ExampleAppPropertyEditorD2Ev
0000000000000000 n _ZN24ExampleAppPropertyEditorD5Ev
                 U _ZN26ImGuiInputTextCallbackData11DeleteCharsEii
                 U _ZN26ImGuiInputTextCallbackData11InsertCharsEiPKcS1_
                 U _ZN26ImGuiSelectionBasicStorage13ApplyRequestsEP18ImGuiMultiSelectIO
                 U _ZN26ImGuiSelectionBasicStorage15SetItemSelectedEjb
                 U _ZN26ImGuiSelectionBasicStorage19GetNextSelectedItemEPPvPj
                 U _ZN26ImGuiSelectionBasicStorage4SwapERS_
                 U _ZN26ImGuiSelectionBasicStorage5ClearEv
                 U _ZN26ImGuiSelectionBasicStorageC1Ev
                 U _ZN26ImGuiSelectionBasicStorageC2Ev
0000000000000000 W _ZN26ImGuiSelectionBasicStorageD1Ev
0000000000000000 W _ZN26ImGuiSelectionBasicStorageD2Ev
0000000000000000 n _ZN26ImGuiSelectionBasicStorageD5Ev
0000000000000000 W _ZN28ExampleSelectionWithDeletionD1Ev
0000000000000000 W _ZN28ExampleSelectionWithDeletionD2Ev
0000000000000000 n _ZN28ExampleSelectionWithDeletionD5Ev
                 U _ZN29ImGuiSelectionExternalStorage13ApplyRequestsEP18ImGuiMultiSelectIO
                 U _ZN29ImGuiSelectionExternalStorageC1Ev
                 U _ZN5ImGui10BeginChildEPKcRK6ImVec2ii
                 U _ZN5ImGui10BeginChildEjRK6ImVec2ii
                 U _ZN5ImGui10BeginComboEPKcS1_i
                 U _ZN5ImGui10BeginGroupEv
                 U _ZN5ImGui10BeginPopupEPKci
                 U _ZN5ImGui10BeginTableEPKciiRK6ImVec2f
                 U _ZN5ImGui10BulletTextEPKcz
                 U _ZN5ImGui10ColorEdit3EPKcPfi
                 U _ZN5ImGui10ColorEdit4EPKcPfi
                 U _ZN5ImGui10DragFloat2EPKcPffffS1_i
                 U _ZN5ImGui10DragFloat3EPKcPffffS1_i
                 U _ZN5ImGui10DragFloat4EPKcPffffS1_i
                 U _ZN5ImGui10DragScalarEPKciPvfPKvS4_S1_i
                 U _ZN5ImGui10EndListBoxEv
                 U _ZN5ImGui10EndMenuBarEv
                 U _ZN5ImGui10EndTabItemEv
                 U _ZN5ImGui10EndTooltipEv
                 U _ZN5ImGui10GetKeyNameE8ImGuiKey
                 U _ZN5ImGui10GetScrollXEv
                 U _ZN5ImGui10GetScrollYEv
                 U _ZN5ImGui10InputFloatEPKcPfffS1_i
                 U _ZN5ImGui10LogButtonsEv
                 U _ZN5ImGui10NextColumnEv
                 U _ZN5ImGui10SelectableEPKcPbiRK6ImVec2
                 U _ZN5ImGui10SelectableEPKcbiRK6ImVec2
                 U _ZN5ImGui10SetScrollXEf
                 U _ZN5ImGui10SetScrollYEf
                 U _ZN5ImGui10SetTooltipEPKcz
                 U _ZN5ImGui10SliderInt2EPKcPiiiS1_i
                 U _ZN5ImGui10SliderInt3EPKcPiiiS1_i
                 U _ZN5ImGui10SliderInt4EPKcPiiiS1_i
                 U _ZN5ImGui10TreeNodeExEPKci
                 U _ZN5ImGui10TreeNodeExEPKciS1_z
                 U _ZN5ImGui10TreeNodeExEPKviPKcz
                 U _ZN5ImGui10VSliderIntEPKcRK6ImVec2PiiiS1_i
                 U _ZN5ImGui11ArrowButtonEPKc8ImGuiDir
                 U _ZN5ImGui11BeginTabBarEPKci
                 U _ZN5ImGui11ColorButtonEPKcRK6ImVec4iRK6ImVec2
                 U _ZN5ImGui11DragScalarNEPKciPvifPKvS4_S1_i
                 U _ZN5ImGui11EndDisabledEv
                 U _ZN5ImGui11GetColorU32ERK6ImVec4
                 U _ZN5ImGui11GetColorU32Eif
                 U _ZN5ImGui11GetColorU32Ejf
                 U _ZN5ImGui11GetFontSizeEv
                 U _ZN5ImGui11ImageButtonEPKc12ImTextureRefRK6ImVec2S5_S5_RK6ImVec4S8_
                 U _ZN5ImGui11ImageWithBgE12ImTextureRefRK6ImVec2S3_S3_RK6ImVec4S6_
                 U _ZN5ImGui11InputDoubleEPKcPdddS1_i
                 U _ZN5ImGui11InputFloat2EPKcPfS1_i
                 U _ZN5ImGui11InputFloat3EPKcPfS1_i
                 U _ZN5ImGui11InputFloat4EPKcPfS1_i
                 U _ZN5ImGui11InputScalarEPKciPvPKvS4_S1_i
                 U _ZN5ImGui11IsMouseDownEi
                 U _ZN5ImGui11IsPopupOpenEPKci
                 U _ZN5ImGui11PopClipRectEv
                 U _ZN5ImGui11PopItemFlagEv
                 U _ZN5ImGui11PopStyleVarEi
                 U _ZN5ImGui11ProgressBarEfRK6ImVec2PKc
                 U _ZN5ImGui11RadioButtonEPKcPii
                 U _ZN5ImGui11RadioButtonEPKcb
                 U _ZN5ImGui11SliderAngleEPKcPfffS1_i
                 U _ZN5ImGui11SliderFloatEPKcPfffS1_i
                 U _ZN5ImGui11SmallButtonEPKc
                 U _ZN5ImGui11TableHeaderEPKc
                 U _ZN5ImGui11TextColoredERK6ImVec4PKcz
                 U _ZN5ImGui11TextWrappedEPKcz
                 U _ZN5ImGui12BeginListBoxEPKcRK6ImVec2
                 U _ZN5ImGui12BeginMenuBarEv
                 U _ZN5ImGui12BeginTabItemEPKcPbi
                 U _ZN5ImGui12BeginTooltipEv
                 U _ZN5ImGui12CalcTextSizeEPKcS1_bf
                 U _ZN5ImGui12ColorPicker3EPKcPfi
                 U _ZN5ImGui12ColorPicker4EPKcPfiPKf
                 U _ZN5ImGui12GetCursorPosEv
                 U _ZN5ImGui12GetWindowPosEv
                 U _ZN5ImGui12IsItemActiveEv
                 U _ZN5ImGui12IsItemEditedEv
                 U _ZN5ImGui12IsKeyPressedE8ImGuiKeyb
                 U _ZN5ImGui12PopItemWidthEv
                 U _ZN5ImGui12PushClipRectERK6ImVec2S2_b
                 U _ZN5ImGui12PushItemFlagEib
                 U _ZN5ImGui12PushStyleVarEiRK6ImVec2
                 U _ZN5ImGui12PushStyleVarEif
                 U _ZN5ImGui12SliderFloat2EPKcPfffS1_i
                 U _ZN5ImGui12SliderFloat3EPKcPfffS1_i
                 U _ZN5ImGui12SliderFloat4EPKcPfffS1_i
                 U _ZN5ImGui12SliderScalarEPKciPvPKvS4_S1_i
                 U _ZN5ImGui12TableNextRowEif
                 U _ZN5ImGui12TextDisabledEPKcz
                 U _ZN5ImGui12VSliderFloatEPKcRK6ImVec2PfffS1_i
                 U _ZN5ImGui13BeginDisabledEb
                 U _ZN5ImGui13CalcItemWidthEv
                 U _ZN5ImGui13CheckboxFlagsEPKcPii
                 U _ZN5ImGui13DragIntRange2EPKcPiS2_fiiS1_S1_i
                 U _ZN5ImGui13GetCursorPosXEv
                 U _ZN5ImGui13GetFrameCountEv
                 U _ZN5ImGui13GetScrollMaxXEv
                 U _ZN5ImGui13GetScrollMaxYEv
                 U _ZN5ImGui13GetWindowSizeEv
                 U _ZN5ImGui13IsItemClickedEi
                 U _ZN5ImGui13IsItemFocusedEv
                 U _ZN5ImGui13IsItemHoveredEi
                 U _ZN5ImGui13IsItemVisibleEv
                 U _ZN5ImGui13IsRectVisibleERK6ImVec2
                 U _ZN5ImGui13PlotHistogramEPKcPFfPviES2_iiS1_ff6ImVec2
                 U _ZN5ImGui13PlotHistogramEPKcPKfiiS1_ff6ImVec2i
                 U _ZN5ImGui13PopStyleColorEi
                 U _ZN5ImGui13PushItemWidthEf
                 U _ZN5ImGui13PushStyleVarYEif
                 U _ZN5ImGui13SeparatorTextEPKc
                 U _ZN5ImGui13SetCursorPosXEf
                 U _ZN5ImGui13SetWindowSizeERK6ImVec2i
                 U _ZN5ImGui13ShowFontAtlasEP11ImFontAtlas
00000000000231f0 T _ZN5ImGui13ShowUserGuideEv
                 U _ZN5ImGui13SliderScalarNEPKciPviPKvS4_S1_i
                 U _ZN5ImGui13TabItemButtonEPKci
                 U _ZN5ImGui14EndMainMenuBarEv
                 U _ZN5ImGui14EndMultiSelectEv
                 U _ZN5ImGui14GetColumnIndexEv
                 U _ZN5ImGui14GetColumnWidthEi
                 U _ZN5ImGui14GetFrameHeightEv
                 U _ZN5ImGui14GetItemRectMaxEv
                 U _ZN5ImGui14GetItemRectMinEv
                 U _ZN5ImGui14GetMouseCursorEv
                 U _ZN5ImGui14GetWindowWidthEv
                 U _ZN5ImGui14IsMouseClickedEib
                 U _ZN5ImGui14IsWindowDockedEv
                 U _ZN5ImGui14LogToClipboardEi
                 U _ZN5ImGui14PopTextWrapPosEv
                 U _ZN5ImGui14PushStyleColorEiRK6ImVec4
                 U _ZN5ImGui14PushStyleColorEij
                 U _ZN5ImGui14SetItemTooltipEPKcz
                 U _ZN5ImGui14SetMouseCursorEi
                 U _ZN5ImGui14SetScrollHereXEf
                 U _ZN5ImGui14SetScrollHereYEf
0000000000023340 T _ZN5ImGui14ShowDemoWindowEPb
00000000000002df t _ZN5ImGui14ShowDemoWindowEPb.cold
                 U _ZN5ImGui15BeginPopupModalEPKcPbi
                 U _ZN5ImGui15DragFloatRange2EPKcPfS2_fffS1_S1_i
                 U _ZN5ImGui15GetColumnOffsetEi
                 U _ZN5ImGui15GetItemRectSizeEv
                 U _ZN5ImGui15GetMainViewportEv
                 U _ZN5ImGui15GetStateStorageEv
                 U _ZN5ImGui15InvisibleButtonEPKcRK6ImVec2i
                 U _ZN5ImGui15IsAnyItemActiveEv
                 U _ZN5ImGui15IsItemActivatedEv
                 U _ZN5ImGui15IsMouseDraggingEif
                 U _ZN5ImGui15IsMousePosValidEPK6ImVec2
                 U _ZN5ImGui15IsMouseReleasedEi
                 U _ZN5ImGui15IsWindowFocusedEi
                 U _ZN5ImGui15IsWindowHoveredEi
                 U _ZN5ImGui15PushTextWrapPosEf
                 U _ZN5ImGui15SetNextItemOpenEbi
0000000000020bf0 T _ZN5ImGui15ShowAboutWindowEPb
00000000000216f0 T _ZN5ImGui15ShowStyleEditorEP10ImGuiStyle
00000000000002ba t _ZN5ImGui15ShowStyleEditorEP10ImGuiStyle.cold
                 U _ZN5ImGui15StyleColorsDarkEP10ImGuiStyle
                 U _ZN5ImGui15TableHeadersRowEv
                 U _ZN5ImGui15TableNextColumnEv
                 U _ZN5ImGui15TableSetBgColorEiji
                 U _ZN5ImGui15TextLinkOpenURLEPKcS1_
                 U _ZN5ImGui15TextUnformattedEPKcS1_
                 U _ZN5ImGui16BeginItemTooltipEv
                 U _ZN5ImGui16BeginMainMenuBarEv
                 U _ZN5ImGui16BeginMultiSelectEiii
                 U _ZN5ImGui16CollapsingHeaderEPKcPbi
                 U _ZN5ImGui16CollapsingHeaderEPKci
                 U _ZN5ImGui16IsAnyItemHoveredEv
                 U _ZN5ImGui16SetNextItemWidthEf
                 U _ZN5ImGui16SetNextWindowPosERK6ImVec2iS2_
                 U _ZN5ImGui16SetTabItemClosedEPKc
                 U _ZN5ImGui16ShowFontSelectorEPKc
                 U _ZN5ImGui16StyleColorsLightEP10ImGuiStyle
                 U _ZN5ImGui16TableGetRowIndexEv
                 U _ZN5ImGui16TableSetupColumnEPKcifj
                 U _ZN5ImGui17CloseCurrentPopupEv
                 U _ZN5ImGui17EndDragDropSourceEv
                 U _ZN5ImGui17EndDragDropTargetEv
                 U _ZN5ImGui17GetCurrentContextEv
                 U _ZN5ImGui17GetCursorStartPosEv
                 U _ZN5ImGui17GetMouseDragDeltaEif
                 U _ZN5ImGui17GetStyleColorNameEi
                 U _ZN5ImGui17GetStyleColorVec4Ei
                 U _ZN5ImGui17GetTextLineHeightEv
                 U _ZN5ImGui17GetWindowDrawListEv
                 U _ZN5ImGui17InputTextWithHintEPKcS1_PcmiPFiP26ImGuiInputTextCallbackDataEPv
                 U _ZN5ImGui17IsItemDeactivatedEv
                 U _ZN5ImGui17IsItemToggledOpenEv
                 U _ZN5ImGui17IsWindowAppearingEv
                 U _ZN5ImGui17SetNextWindowSizeERK6ImVec2i
                 U _ZN5ImGui17SetScrollFromPosXEff
                 U _ZN5ImGui17SetScrollFromPosYEff
                 U _ZN5ImGui17ShowMetricsWindowEPb
00000000000215a0 T _ZN5ImGui17ShowStyleSelectorEPKc
                 U _ZN5ImGui17TableGetSortSpecsEv
                 U _ZN5ImGui18GetCursorScreenPosEv
                 U _ZN5ImGui18GetDragDropPayloadEv
                 U _ZN5ImGui18InputTextMultilineEPKcPcmRK6ImVec2iPFiP26ImGuiInputTextCallbackDataEPv
                 U _ZN5ImGui18SetCursorScreenPosERK6ImVec2
                 U _ZN5ImGui18SetDragDropPayloadEPKcPKvmi
                 U _ZN5ImGui18ShowDebugLogWindowEPb
                 U _ZN5ImGui18StyleColorsClassicEP10ImGuiStyle
                 U _ZN5ImGui18TableGetColumnNameEi
                 U _ZN5ImGui19BeginDragDropSourceEi
                 U _ZN5ImGui19BeginDragDropTargetEv
                 U _ZN5ImGui19ResetMouseDragDeltaEi
                 U _ZN5ImGui19SetColorEditOptionsEi
                 U _ZN5ImGui19SetItemDefaultFocusEv
                 U _ZN5ImGui19SetNextItemShortcutEii
                 U _ZN5ImGui19SetNextWindowDockIDEji
                 U _ZN5ImGui19TableGetColumnFlagsEi
                 U _ZN5ImGui19TableGetColumnIndexEv
                 U _ZN5ImGui19TableSetColumnIndexEi
                 U _ZN5ImGui20ColorConvertHSVtoRGBEfffRfS0_S0_
                 U _ZN5ImGui20DebugFlashStyleColorEi
                 U _ZN5ImGui20DebugStartItemPickerEv
                 U _ZN5ImGui20IsMouseDoubleClickedEi
                 U _ZN5ImGui20OpenPopupOnItemClickEPKci
                 U _ZN5ImGui20SetKeyboardFocusHereEi
                 U _ZN5ImGui20SetNextItemStorageIDEj
                 U _ZN5ImGui20SetNextWindowBgAlphaEf
                 U _ZN5ImGui21AcceptDragDropPayloadEPKci
                 U _ZN5ImGui21BeginPopupContextItemEPKci
                 U _ZN5ImGui21GetBackgroundDrawListEP13ImGuiViewport
                 U _ZN5ImGui21GetContentRegionAvailEv
                 U _ZN5ImGui21GetForegroundDrawListEP13ImGuiViewport
                 U _ZN5ImGui21SetNextWindowViewportEj
                 U _ZN5ImGui21ShowIDStackToolWindowEPb
                 U _ZN5ImGui21TableAngledHeadersRowEv
                 U _ZN5ImGui22IsItemToggledSelectionEv
                 U _ZN5ImGui22TableSetupScrollFreezeEii
                 U _ZN5ImGui23AlignTextToFramePaddingEv
                 U _ZN5ImGui23BeginPopupContextWindowEPKci
                 U _ZN5ImGui23ColorConvertFloat4ToU32ERK6ImVec4
                 U _ZN5ImGui23SetNextItemAllowOverlapEv
                 U _ZN5ImGui24SetNextWindowContentSizeERK6ImVec2
                 U _ZN5ImGui25GetFrameHeightWithSpacingEv
                 U _ZN5ImGui25GetTreeNodeToLabelSpacingEv
                 U _ZN5ImGui26IsItemDeactivatedAfterEditEv
                 U _ZN5ImGui28GetTextLineHeightWithSpacingEv
                 U _ZN5ImGui28SetNextFrameWantCaptureMouseEb
                 U _ZN5ImGui28SetNextItemSelectionUserDataEx
                 U _ZN5ImGui28SetNextWindowSizeConstraintsERK6ImVec2S2_PFvP21ImGuiSizeCallbackDataEPv
                 U _ZN5ImGui30DebugCheckVersionAndDataLayoutEPKcmmmmmm
                 U _ZN5ImGui31SetNextFrameWantCaptureKeyboardEb
                 U _ZN5ImGui3EndEv
                 U _ZN5ImGui4TextEPKcz
                 U _ZN5ImGui5BeginEPKcPbi
                 U _ZN5ImGui5ComboEPKcPiPFS1_PviES3_ii
                 U _ZN5ImGui5ComboEPKcPiPKS1_ii
                 U _ZN5ImGui5ComboEPKcPiS1_i
                 U _ZN5ImGui5DummyERK6ImVec2
                 U _ZN5ImGui5GetIDEPKc
                 U _ZN5ImGui5GetIDEPKv
                 U _ZN5ImGui5GetIOEv
                 U _ZN5ImGui5PopIDEv
                 U _ZN5ImGui6BulletEv
                 U _ZN5ImGui6ButtonEPKcRK6ImVec2
                 U _ZN5ImGui6IndentEf
                 U _ZN5ImGui6PushIDEPKc
                 U _ZN5ImGui6PushIDEPKv
                 U _ZN5ImGui6PushIDEi
                 U _ZN5ImGui7ColumnsEiPKcb
                 U _ZN5ImGui7DragIntEPKcPifiiS1_i
                 U _ZN5ImGui7EndMenuEv
                 U _ZN5ImGui7GetFontEv
                 U _ZN5ImGui7GetTimeEv
                 U _ZN5ImGui7ListBoxEPKcPiPKS1_ii
                 U _ZN5ImGui7LogTextEPKcz
                 U _ZN5ImGui7MemFreeEPv
                 U _ZN5ImGui7NewLineEv
                 U _ZN5ImGui7PopFontEv
                 U _ZN5ImGui7SpacingEv
                 U _ZN5ImGui7TreePopEv
                 U _ZN5ImGui8CheckboxEPKcPb
                 U _ZN5ImGui8DragInt2EPKcPifiiS1_i
                 U _ZN5ImGui8DragInt3EPKcPifiiS1_i
                 U _ZN5ImGui8DragInt4EPKcPifiiS1_i
                 U _ZN5ImGui8EndChildEv
                 U _ZN5ImGui8EndComboEv
                 U _ZN5ImGui8EndGroupEv
                 U _ZN5ImGui8EndPopupEv
                 U _ZN5ImGui8EndTableEv
                 U _ZN5ImGui8GetStyleEv
                 U _ZN5ImGui8InputIntEPKcPiiii
                 U _ZN5ImGui8LogToTTYEi
                 U _ZN5ImGui8MemAllocEm
                 U _ZN5ImGui8MenuItemEPKcS1_Pbb
                 U _ZN5ImGui8MenuItemEPKcS1_bb
                 U _ZN5ImGui8PushFontEP6ImFontf
                 U _ZN5ImGui8SameLineEff
                 U _ZN5ImGui8ShortcutEii
                 U _ZN5ImGui8TreeNodeEPKc
                 U _ZN5ImGui8TreeNodeEPKcS1_z
                 U _ZN5ImGui8TreeNodeEPKvPKcz
                 U _ZN5ImGui8UnindentEf
                 U _ZN5ImGui9BeginMenuEPKcb
                 U _ZN5ImGui9DockSpaceEjRK6ImVec2iPK16ImGuiWindowClass
                 U _ZN5ImGui9DragFloatEPKcPffffS1_i
                 U _ZN5ImGui9EndTabBarEv
                 U _ZN5ImGui9InputInt2EPKcPii
                 U _ZN5ImGui9InputInt3EPKcPii
                 U _ZN5ImGui9InputInt4EPKcPii
                 U _ZN5ImGui9InputTextEPKcPcmiPFiP26ImGuiInputTextCallbackDataEPv
                 U _ZN5ImGui9IsKeyDownE8ImGuiKey
                 U _ZN5ImGui9LabelTextEPKcS1_z
                 U _ZN5ImGui9LogFinishEv
                 U _ZN5ImGui9OpenPopupEPKci
                 U _ZN5ImGui9PlotLinesEPKcPFfPviES2_iiS1_ff6ImVec2
                 U _ZN5ImGui9PlotLinesEPKcPKfiiS1_ff6ImVec2i
                 U _ZN5ImGui9SeparatorEv
                 U _ZN5ImGui9SliderIntEPKcPiiiS1_i
0000000000000000 W _ZN8ImVectorI6ImVec2ED1Ev
0000000000000000 W _ZN8ImVectorI6ImVec2ED2Ev
0000000000000000 n _ZN8ImVectorI6ImVec2ED5Ev
0000000000000120 t _ZN8ImVectorIN12_GLOBAL__N_16MyItemEED1Ev
0000000000000120 t _ZN8ImVectorIN12_GLOBAL__N_16MyItemEED2Ev
0000000000000000 W _ZN8ImVectorIcED1Ev
0000000000000000 W _ZN8ImVectorIcED2Ev
0000000000000000 n _ZN8ImVectorIcED5Ev
0000000000000000 W _ZN8ImVectorIiED1Ev
0000000000000000 W _ZN8ImVectorIiED2Ev
0000000000000000 n _ZN8ImVectorIiED5Ev
0000000000000000 W _ZN8ImVectorIjED1Ev
0000000000000000 W _ZN8ImVectorIjED2Ev
0000000000000000 n _ZN8ImVectorIjED5Ev
                 U _ZNK10ImDrawList27_CalcCircleAutoSegmentCountEf
                 U _ZNK12ImGuiStorage7GetBoolEjb
                 U _ZNK15ImGuiTextFilter10PassFilterEPKcS1_
                 U _ZNK26ImGuiSelectionBasicStorage8ContainsEj
0000000000000104 d _ZZL16DemoWindowInputsvE10route_type
0000000000000108 d _ZZL16DemoWindowInputsvE13route_options
0000000000000100 d _ZZL16DemoWindowInputsvE1f
0000000000000110 d _ZZL16DemoWindowInputsvE22capture_override_mouse
000000000000010c d _ZZL16DemoWindowInputsvE25capture_override_keyboard
0000000000000cd8 b _ZZL16DemoWindowInputsvE2f3
00000000000000e0 d _ZZL16DemoWindowInputsvE3buf
0000000000000060 d _ZZL16DemoWindowInputsvE3buf_0
00000000000002a0 d _ZZL16DemoWindowLayoutvE10draw_lines
0000000000000f92 b _ZZL16DemoWindowLayoutvE10show_child
0000000000000260 d _ZZL16DemoWindowLayoutvE10track_item
0000000000000294 d _ZZL16DemoWindowLayoutvE11child_flags
000000000000024f d _ZZL16DemoWindowLayoutvE11show_button
0000000000000fac b _ZZL16DemoWindowLayoutvE12disable_menu
000000000000025c d _ZZL16DemoWindowLayoutvE12enable_track
000000000000024d d _ZZL16DemoWindowLayoutvE12show_columns
000000000000024c d _ZZL16DemoWindowLayoutvE12show_tab_bar
0000000000000248 d _ZZL16DemoWindowLayoutvE15contents_size_x
000000000000024e d _ZZL16DemoWindowLayoutvE15show_tree_nodes
0000000000000f98 b _ZZL16DemoWindowLayoutvE16scroll_to_off_px
0000000000000258 d _ZZL16DemoWindowLayoutvE16scroll_to_pos_px
0000000000000250 d _ZZL16DemoWindowLayoutvE16show_h_scrollbar
0000000000000298 d _ZZL16DemoWindowLayoutvE17override_bg_color
0000000000000f93 b _ZZL16DemoWindowLayoutvE17show_text_wrapped
0000000000000fad b _ZZL16DemoWindowLayoutvE19disable_mouse_wheel
000000000000029c d _ZZL16DemoWindowLayoutvE19max_height_in_lines
0000000000000290 d _ZZL16DemoWindowLayoutvE19show_indented_items
0000000000000fa4 b _ZZL16DemoWindowLayoutvE1f
0000000000000234 d _ZZL16DemoWindowLayoutvE20enable_allow_overlap
0000000000000f91 b _ZZL16DemoWindowLayoutvE21explicit_content_size
0000000000000f9c b _ZZL16DemoWindowLayoutvE24enable_extra_decorations
0000000000000fa0 b _ZZL16DemoWindowLayoutvE2c1
0000000000000f9f b _ZZL16DemoWindowLayoutvE2c2
0000000000000f9e b _ZZL16DemoWindowLayoutvE2c3
0000000000000f9d b _ZZL16DemoWindowLayoutvE2c4
000000000000028c d _ZZL16DemoWindowLayoutvE2f0
0000000000000288 d _ZZL16DemoWindowLayoutvE2f1
0000000000000284 d _ZZL16DemoWindowLayoutvE2f2
0000000000000f94 b _ZZL16DemoWindowLayoutvE41show_horizontal_contents_size_demo_window
0000000000000280 d _ZZL16DemoWindowLayoutvE4item
0000000000000240 d _ZZL16DemoWindowLayoutvE4size
0000000000000254 d _ZZL16DemoWindowLayoutvE5lines
0000000000000238 d _ZZL16DemoWindowLayoutvE6offset
0000000000000fa8 b _ZZL16DemoWindowLayoutvE8offset_x
0000000000000270 d _ZZL16DemoWindowLayoutvE9selection
0000000000000230 d _ZZL16DemoWindowPopupsvE13selected_fish
0000000000000f90 b _ZZL16DemoWindowPopupsvE21dont_ask_me_next_time
00000000000001f0 d _ZZL16DemoWindowPopupsvE4item
0000000000000200 d _ZZL16DemoWindowPopupsvE4name
00000000000001e0 d _ZZL16DemoWindowPopupsvE5color
0000000000000220 d _ZZL16DemoWindowPopupsvE5value
0000000000000228 d _ZZL16DemoWindowPopupsvE7toggles
0000000000000224 d _ZZL16DemoWindowPopupsvE8selected
0000000000000190 d _ZZL16DemoWindowTablesvE11freeze_cols
0000000000000134 d _ZZL16DemoWindowTablesvE11freeze_cols_0
000000000000018c d _ZZL16DemoWindowTablesvE11freeze_rows
0000000000000130 d _ZZL16DemoWindowTablesvE11freeze_rows_0
0000000000000150 d _ZZL16DemoWindowTablesvE11frozen_cols
000000000000014c d _ZZL16DemoWindowTablesvE11frozen_rows
0000000000000184 d _ZZL16DemoWindowTablesvE11inner_width
000000000000012c d _ZZL16DemoWindowTablesvE11items_count
0000000000000168 d _ZZL16DemoWindowTablesvE11row_bg_type
0000000000000158 d _ZZL16DemoWindowTablesvE11table_flags_0
0000000000000160 d _ZZL16DemoWindowTablesvE12cell_bg_type
0000000000000f70 b _ZZL16DemoWindowTablesvE12cell_padding
000000000000019c d _ZZL16DemoWindowTablesvE12column_count
0000000000000178 d _ZZL16DemoWindowTablesvE12column_flags
0000000000000154 d _ZZL16DemoWindowTablesvE12column_flags_0
0000000000000f78 b _ZZL16DemoWindowTablesvE12show_headers
0000000000000128 d _ZZL16DemoWindowTablesvE12show_headers_0
0000000000000f7c b _ZZL16DemoWindowTablesvE13contents_type
0000000000000e60 b _ZZL16DemoWindowTablesvE13contents_type_0
0000000000000138 d _ZZL16DemoWindowTablesvE13contents_type_1
0000000000000164 d _ZZL16DemoWindowTablesvE13row_bg_target
0000000000000f81 b _ZZL16DemoWindowTablesvE14disable_indent
0000000000000d28 b _ZZL16DemoWindowTablesvE14row_min_height
0000000000000e08 b _ZZL16DemoWindowTablesvE15column_selected
0000000000000f80 b _ZZL16DemoWindowTablesvE15display_headers
0000000000000ce5 b _ZZL16DemoWindowTablesvE15items_need_sort
0000000000000e18 b _ZZL16DemoWindowTablesvE16column_flags_out
0000000000000d38 b _ZZL16DemoWindowTablesvE16outer_size_value
0000000000000d20 b _ZZL16DemoWindowTablesvE17show_wrapped_text
0000000000000d40 b _ZZL16DemoWindowTablesvE18columns_base_flags
0000000000000129 d _ZZL16DemoWindowTablesvE18outer_size_enabled
0000000000000ce4 b _ZZL16DemoWindowTablesvE18show_debug_details
00000000000001b0 d _ZZL16DemoWindowTablesvE19sizing_policy_flags
00000000000001c5 d _ZZL16DemoWindowTablesvE20show_widget_frame_bg
0000000000000000 d _ZZL16DemoWindowTablesvE20template_items_names
000000000000015c d _ZZL16DemoWindowTablesvE20tree_node_flags_base
0000000000000d24 b _ZZL16DemoWindowTablesvE23inner_width_with_scroll
00000000000001c4 d _ZZL16DemoWindowTablesvE4init
0000000000000d60 b _ZZL16DemoWindowTablesvE5bools
00000000000001dc d _ZZL16DemoWindowTablesvE5flags
00000000000001d8 d _ZZL16DemoWindowTablesvE5flags_0
00000000000001d4 d _ZZL16DemoWindowTablesvE5flags_1
00000000000001d0 d _ZZL16DemoWindowTablesvE5flags_3
00000000000001a0 d _ZZL16DemoWindowTablesvE5flags_4
0000000000000198 d _ZZL16DemoWindowTablesvE5flags_5
0000000000000194 d _ZZL16DemoWindowTablesvE5flags_6
0000000000000170 d _ZZL16DemoWindowTablesvE5flags_7
000000000000016c d _ZZL16DemoWindowTablesvE5flags_8
0000000000000144 d _ZZL16DemoWindowTablesvE5flags_9
0000000000000140 d _ZZL16DemoWindowTablesvE5flags__10_
000000000000013c d _ZZL16DemoWindowTablesvE5flags__11_
0000000000000d50 b _ZZL16DemoWindowTablesvE5items
0000000000000d10 b _ZZL16DemoWindowTablesvE5items_0
0000000000000080 d _ZZL16DemoWindowTablesvE5nodes
00000000000001cc d _ZZL16DemoWindowTablesvE6flags1
00000000000001c0 d _ZZL16DemoWindowTablesvE6flags1_0
0000000000000174 d _ZZL16DemoWindowTablesvE6flags1_1
0000000000000148 d _ZZL16DemoWindowTablesvE6flags1_2
00000000000001c8 d _ZZL16DemoWindowTablesvE6flags2
0000000000000188 d _ZZL16DemoWindowTablesvE6flags2_0
0000000000000e10 b _ZZL16DemoWindowTablesvE6flags2_1
0000000000000e0c b _ZZL16DemoWindowTablesvE7dummy_f
0000000000000e40 b _ZZL16DemoWindowTablesvE8text_buf
0000000000000cf0 b _ZZL16DemoWindowTablesvE9selection
0000000000000e80 b _ZZL16DemoWindowTablesvE9text_bufs
0000000000003070 t _ZZL16DemoWindowTablesvEN10MyTreeNode11DisplayNodeEPKS_S1_.constprop.0
000000000000011c d _ZZL17DemoWindowColumnsvE13columns_count
0000000000000114 d _ZZL17DemoWindowColumnsvE3bar
0000000000000118 d _ZZL17DemoWindowColumnsvE3foo
0000000000000124 d _ZZL17DemoWindowColumnsvE8selected
0000000000000121 d _ZZL17DemoWindowColumnsvE9h_borders
0000000000000120 d _ZZL17DemoWindowColumnsvE9v_borders
00000000000002a0 b _ZZL17ShowExampleAppLogPbE3log
0000000000000284 b _ZZL17ShowExampleAppLogPbE7counter
000000000000004c d _ZZL19ShowExampleMenuFilevE1b
0000000000000050 d _ZZL19ShowExampleMenuFilevE1f
0000000000000658 b _ZZL19ShowExampleMenuFilevE1n
0000000000000054 d _ZZL19ShowExampleMenuFilevE7enabled
00000000000001a0 d _ZZL20EditTableSizingFlagsPiE8policies
0000000000000280 b _ZZL20ShowExampleAppLayoutPbE8selected
00000000000012f0 b _ZZL21DemoWindowWidgetsTabsvE11active_tabs
00000000000012d8 b _ZZL21DemoWindowWidgetsTabsvE11next_tab_id
0000000000004438 d _ZZL21DemoWindowWidgetsTabsvE13tab_bar_flags
000000000000442c d _ZZL21DemoWindowWidgetsTabsvE13tab_bar_flags_0
0000000000004431 d _ZZL21DemoWindowWidgetsTabsvE19show_leading_button
0000000000004430 d _ZZL21DemoWindowWidgetsTabsvE20show_trailing_button
0000000000004432 d _ZZL21DemoWindowWidgetsTabsvE6opened
0000000000004420 d _ZZL21DemoWindowWidgetsTextvE10wrap_width
0000000000004428 d _ZZL21DemoWindowWidgetsTextvE11custom_size
0000000000004424 d _ZZL21DemoWindowWidgetsTextvE12custom_scale
0000000000004400 d _ZZL21DemoWindowWidgetsTextvE3buf
0000000000000400 b _ZZL21ShowExampleAppConsolePbE7console
0000000000001b64 b _ZZL22DemoWindowWidgetsBasicvE12item_current
00000000000045c4 d _ZZL22DemoWindowWidgetsBasicvE12item_current_0
0000000000001c04 b _ZZL22DemoWindowWidgetsBasicvE1e
0000000000004628 d _ZZL22DemoWindowWidgetsBasicvE2d0
0000000000004630 d _ZZL22DemoWindowWidgetsBasicvE2f0
0000000000004620 d _ZZL22DemoWindowWidgetsBasicvE2f1
00000000000045f4 d _ZZL22DemoWindowWidgetsBasicvE2f1_0
00000000000045ec d _ZZL22DemoWindowWidgetsBasicvE2f1_1
00000000000045f0 d _ZZL22DemoWindowWidgetsBasicvE2f2
0000000000001b70 b _ZZL22DemoWindowWidgetsBasicvE2f2_0
0000000000004634 d _ZZL22DemoWindowWidgetsBasicvE2i0
0000000000004600 d _ZZL22DemoWindowWidgetsBasicvE2i1
0000000000001b74 b _ZZL22DemoWindowWidgetsBasicvE2i1_0
00000000000045fc d _ZZL22DemoWindowWidgetsBasicvE2i2
00000000000045f8 d _ZZL22DemoWindowWidgetsBasicvE2i3
00000000000045e0 d _ZZL22DemoWindowWidgetsBasicvE4col1
00000000000045d0 d _ZZL22DemoWindowWidgetsBasicvE4col2
0000000000001b68 b _ZZL22DemoWindowWidgetsBasicvE4elem
0000000000004640 d _ZZL22DemoWindowWidgetsBasicvE4str0
0000000000001b80 b _ZZL22DemoWindowWidgetsBasicvE4str1
0000000000001b6c b _ZZL22DemoWindowWidgetsBasicvE5angle
00000000000046c0 d _ZZL22DemoWindowWidgetsBasicvE5check
0000000000004610 d _ZZL22DemoWindowWidgetsBasicvE5vec4a
0000000000001c08 b _ZZL22DemoWindowWidgetsBasicvE7clicked
0000000000001c00 b _ZZL22DemoWindowWidgetsBasicvE7counter
0000000000000140 b _ZZL22ShowExampleAppLongTextPbE3log
000000000000012c b _ZZL22ShowExampleAppLongTextPbE5lines
0000000000000150 b _ZZL22ShowExampleAppLongTextPbE9test_type
00000000000017f0 b _ZZL23DemoWindowWidgetsImagesvE13pressed_count
00000000000000f4 b _ZZL23ShowExampleAppDockSpacePbE11opt_padding
0000000000000008 d _ZZL23ShowExampleAppDockSpacePbE14opt_fullscreen
00000000000000f0 b _ZZL23ShowExampleAppDockSpacePbE15dockspace_flags
0000000000000004 d _ZZL23ShowExampleAppDocumentsPbE10opt_target
0000000000000000 d _ZZL23ShowExampleAppDocumentsPbE15opt_reorderable
00000000000000c0 b _ZZL23ShowExampleAppDocumentsPbE3app
0000000000000048 d _ZZL24ShowExampleAppAutoResizePbE5lines
0000000000000038 d _ZZL24ShowExampleAppFullscreenPbE13use_work_area
0000000000000034 d _ZZL24ShowExampleAppFullscreenPbE5flags
0000000000001670 b _ZZL25DemoWindowWidgetsPlottingvE12refresh_time
0000000000004498 d _ZZL25DemoWindowWidgetsPlottingvE13display_count
0000000000001678 b _ZZL25DemoWindowWidgetsPlottingvE13values_offset
00000000000044a0 d _ZZL25DemoWindowWidgetsPlottingvE3arr
000000000000166c b _ZZL25DemoWindowWidgetsPlottingvE5phase
0000000000001680 b _ZZL25DemoWindowWidgetsPlottingvE6values
00000000000044bc d _ZZL25DemoWindowWidgetsPlottingvE7animate
0000000000001668 b _ZZL25DemoWindowWidgetsPlottingvE9func_type
0000000000000010 t _ZZL25DemoWindowWidgetsPlottingvEN5Funcs3SawEPvi
0000000000000650 t _ZZL25DemoWindowWidgetsPlottingvEN5Funcs3SinEPvi
00000000000002f0 d _ZZL25DemoWindowWidgetsTooltipsvE3arr
0000000000000fb8 b _ZZL25DemoWindowWidgetsTooltipsvE9always_on
0000000000001800 b _ZZL26DemoWindowWidgetsDataTypesvE10drag_clamp
000000000000452c d _ZZL26DemoWindowWidgetsDataTypesvE11inputs_step
000000000000455d d _ZZL26DemoWindowWidgetsDataTypesvE4s8_v
000000000000455c d _ZZL26DemoWindowWidgetsDataTypesvE4u8_v
0000000000004538 d _ZZL26DemoWindowWidgetsDataTypesvE5f32_v
0000000000004530 d _ZZL26DemoWindowWidgetsDataTypesvE5f64_v
00000000000017fc b _ZZL26DemoWindowWidgetsDataTypesvE5flags
000000000000455a d _ZZL26DemoWindowWidgetsDataTypesvE5s16_v
0000000000004554 d _ZZL26DemoWindowWidgetsDataTypesvE5s32_v
0000000000004548 d _ZZL26DemoWindowWidgetsDataTypesvE5s64_v
0000000000004558 d _ZZL26DemoWindowWidgetsDataTypesvE5u16_v
0000000000004550 d _ZZL26DemoWindowWidgetsDataTypesvE5u32_v
0000000000004540 d _ZZL26DemoWindowWidgetsDataTypesvE5u64_v
00000000000017e8 b _ZZL26DemoWindowWidgetsListBoxesvE14item_highlight
00000000000017ec b _ZZL26DemoWindowWidgetsListBoxesvE17item_selected_idx
0000000000000ff4 b _ZZL26DemoWindowWidgetsTextInputvE10edit_count
0000000000001180 b _ZZL26DemoWindowWidgetsTextInputvE4buf1
0000000000001080 b _ZZL26DemoWindowWidgetsTextInputvE4buf1_0
0000000000000320 d _ZZL26DemoWindowWidgetsTextInputvE4buf1_1
0000000000000fc0 b _ZZL26DemoWindowWidgetsTextInputvE4buf1_2
0000000000001160 b _ZZL26DemoWindowWidgetsTextInputvE4buf2
0000000000001040 b _ZZL26DemoWindowWidgetsTextInputvE4buf2_0
0000000000001140 b _ZZL26DemoWindowWidgetsTextInputvE4buf3
0000000000001000 b _ZZL26DemoWindowWidgetsTextInputvE4buf3_0
0000000000001120 b _ZZL26DemoWindowWidgetsTextInputvE4buf4
0000000000001100 b _ZZL26DemoWindowWidgetsTextInputvE4buf5
00000000000010e0 b _ZZL26DemoWindowWidgetsTextInputvE4buf6
00000000000010c0 b _ZZL26DemoWindowWidgetsTextInputvE4buf7
0000000000000400 d _ZZL26DemoWindowWidgetsTextInputvE4text
00000000000003e0 d _ZZL26DemoWindowWidgetsTextInputvE5flags
0000000000000ff0 b _ZZL26DemoWindowWidgetsTextInputvE5flags_0
0000000000000310 d _ZZL26DemoWindowWidgetsTextInputvE5flags_1
000000000000030c d _ZZL26DemoWindowWidgetsTextInputvE5flags_2
0000000000000fe0 b _ZZL26DemoWindowWidgetsTextInputvE6my_str
00000000000003a0 d _ZZL26DemoWindowWidgetsTextInputvE8password
0000000000000040 t _ZZL26DemoWindowWidgetsTextInputvEN11TextFilters16FilterCasingSwapEP26ImGuiInputTextCallbackData
0000000000000670 t _ZZL26DemoWindowWidgetsTextInputvEN11TextFilters18FilterImGuiLettersEP26ImGuiInputTextCallbackData
0000000000000a90 t _ZZL26DemoWindowWidgetsTextInputvEN5Funcs10MyCallbackEP26ImGuiInputTextCallbackData
0000000000001780 t _ZZL26DemoWindowWidgetsTextInputvEN5Funcs16MyResizeCallbackE_0P26ImGuiInputTextCallbackData
00000000000002e4 d _ZZL26DemoWindowWidgetsTreeNodesvE10base_flags
00000000000002e0 d _ZZL26DemoWindowWidgetsTreeNodesvE10base_flags_0
00000000000002dc d _ZZL26DemoWindowWidgetsTreeNodesvE14selection_mask
0000000000000fb4 b _ZZL26DemoWindowWidgetsTreeNodesvE18test_drag_and_drop
0000000000000fb5 b _ZZL26DemoWindowWidgetsTreeNodesvE35align_label_with_current_x_position
0000000000000300 d _ZZL26ExampleTree_CreateDemoTreevE10root_names
0000000000001808 b _ZZL27DemoWindowWidgetsComboBoxesvE14item_current_2
0000000000004560 d _ZZL27DemoWindowWidgetsComboBoxesvE14item_current_3
0000000000001804 b _ZZL27DemoWindowWidgetsComboBoxesvE14item_current_4
0000000000001938 b _ZZL27DemoWindowWidgetsComboBoxesvE17item_selected_idx
000000000000193c b _ZZL27DemoWindowWidgetsComboBoxesvE5flags
0000000000001820 b _ZZL27DemoWindowWidgetsComboBoxesvE6filter
0000000000000000 t _ZZL27DemoWindowWidgetsComboBoxesvENUlPviE_4_FUNES_i
00000000000011c0 b _ZZL27DemoWindowWidgetsTextFiltervE6filter
0000000000000020 b _ZZL27ShowExampleAppAssetsBrowserPbE14assets_browser
0000000000000124 b _ZZL27ShowExampleAppSimpleOverlayPbE8location
0000000000000000 d _ZZL28DemoWindowWidgetsDragAndDropvE10item_names
0000000000004520 d _ZZL28DemoWindowWidgetsDragAndDropvE4col1
0000000000004510 d _ZZL28DemoWindowWidgetsDragAndDropvE4col2
0000000000004500 d _ZZL28DemoWindowWidgetsDragAndDropvE4col4
00000000000017f8 b _ZZL28DemoWindowWidgetsDragAndDropvE4mode
0000000000000040 d _ZZL28DemoWindowWidgetsDragAndDropvE5names
0000000000001642 b _ZZL28DemoWindowWidgetsSelectablesvE8selected
0000000000001638 b _ZZL28DemoWindowWidgetsSelectablesvE8selected_0
0000000000004460 d _ZZL28DemoWindowWidgetsSelectablesvE8selected_1
0000000000004450 d _ZZL28DemoWindowWidgetsSelectablesvE8selected_2
0000000000004470 d _ZZL28DemoWindowWidgetsSelectablesvE9selection
0000000000000160 b _ZZL28ShowExampleAppPropertyEditorPbP19ImGuiDemoWindowDataE15property_editor
0000000000004494 d _ZZL29DemoWindowWidgetsProgressBarsvE12progress_dir
0000000000001664 b _ZZL29DemoWindowWidgetsProgressBarsvE8progress
0000000000000028 d _ZZL29ShowExampleAppCustomRenderingPbE10ngon_sides
00000000000000f5 b _ZZL29ShowExampleAppCustomRenderingPbE11adding_line
000000000000000c d _ZZL29ShowExampleAppCustomRenderingPbE15opt_enable_grid
0000000000000120 b _ZZL29ShowExampleAppCustomRenderingPbE23curve_segments_override
000000000000000b d _ZZL29ShowExampleAppCustomRenderingPbE23opt_enable_context_menu
0000000000000121 b _ZZL29ShowExampleAppCustomRenderingPbE24circle_segments_override
0000000000000020 d _ZZL29ShowExampleAppCustomRenderingPbE25curve_segments_override_v
0000000000000024 d _ZZL29ShowExampleAppCustomRenderingPbE26circle_segments_override_v
0000000000000030 d _ZZL29ShowExampleAppCustomRenderingPbE2sz
0000000000000010 d _ZZL29ShowExampleAppCustomRenderingPbE4colf
0000000000000110 b _ZZL29ShowExampleAppCustomRenderingPbE6points
000000000000000a d _ZZL29ShowExampleAppCustomRenderingPbE7draw_bg
0000000000000009 d _ZZL29ShowExampleAppCustomRenderingPbE7draw_fg
00000000000000f8 b _ZZL29ShowExampleAppCustomRenderingPbE9scrolling
000000000000002c d _ZZL29ShowExampleAppCustomRenderingPbE9thickness
0000000000000128 b _ZZL31ShowExampleAppConstrainedResizePbE11auto_resize
000000000000003c d _ZZL31ShowExampleAppConstrainedResizePbE13display_lines
0000000000000044 d _ZZL31ShowExampleAppConstrainedResizePbE14window_padding
0000000000000040 d _ZZL31ShowExampleAppConstrainedResizePbE4type
0000000000000080 t _ZZL31ShowExampleAppConstrainedResizePbEN17CustomConstraints11AspectRatioEP21ImGuiSizeCallbackData
00000000000000e0 t _ZZL31ShowExampleAppConstrainedResizePbEN17CustomConstraints4StepEP21ImGuiSizeCallbackData
00000000000000b0 t _ZZL31ShowExampleAppConstrainedResizePbEN17CustomConstraints6SquareEP21ImGuiSizeCallbackData
0000000000001b60 b _ZZL32DemoWindowWidgetsColorAndPickersvE10base_flags
0000000000001944 b _ZZL32DemoWindowWidgetsColorAndPickersvE11picker_mode
0000000000004590 d _ZZL32DemoWindowWidgetsColorAndPickersvE11ref_color_v
0000000000001950 b _ZZL32DemoWindowWidgetsColorAndPickersvE12backup_color
0000000000001940 b _ZZL32DemoWindowWidgetsColorAndPickersvE12display_mode
0000000000001960 b _ZZL32DemoWindowWidgetsColorAndPickersvE13saved_palette
0000000000004580 d _ZZL32DemoWindowWidgetsColorAndPickersvE18color_picker_flags
00000000000045a0 d _ZZL32DemoWindowWidgetsColorAndPickersvE18saved_palette_init
00000000000045b0 d _ZZL32DemoWindowWidgetsColorAndPickersvE5color
0000000000004570 d _ZZL32DemoWindowWidgetsColorAndPickersvE9color_hsv
0000000000001949 b _ZZL32DemoWindowWidgetsColorAndPickersvE9no_border
0000000000001948 b _ZZL32DemoWindowWidgetsColorAndPickersvE9ref_color
00000000000017f4 b _ZZL32DemoWindowWidgetsDragsAndSlidersvE5flags
00000000000044fc d _ZZL32DemoWindowWidgetsDragsAndSlidersvE6drag_f
00000000000044f8 d _ZZL32DemoWindowWidgetsDragsAndSlidersvE6drag_i
00000000000044f4 d _ZZL32DemoWindowWidgetsDragsAndSlidersvE8slider_f
00000000000044f0 d _ZZL32DemoWindowWidgetsDragsAndSlidersvE8slider_i
00000000000044c8 d _ZZL32DemoWindowWidgetsMultiComponentsvE3end
00000000000044cc d _ZZL32DemoWindowWidgetsMultiComponentsvE5begin
00000000000044c0 d _ZZL32DemoWindowWidgetsMultiComponentsvE5end_i
00000000000044e0 d _ZZL32DemoWindowWidgetsMultiComponentsvE5vec4f
00000000000044d0 d _ZZL32DemoWindowWidgetsMultiComponentsvE5vec4i
00000000000044c4 d _ZZL32DemoWindowWidgetsMultiComponentsvE7begin_i
00000000000002c0 d _ZZL32DemoWindowWidgetsVerticalSlidersvE6values
00000000000002b0 d _ZZL32DemoWindowWidgetsVerticalSlidersvE7values2
0000000000000fb0 b _ZZL32DemoWindowWidgetsVerticalSlidersvE9int_value
0000000000001645 b _ZZL33DemoWindowWidgetsQueryingStatusesvE11test_window
0000000000001661 b _ZZL33DemoWindowWidgetsQueryingStatusesvE13item_disabled
0000000000001660 b _ZZL33DemoWindowWidgetsQueryingStatusesvE1b
0000000000001646 b _ZZL33DemoWindowWidgetsQueryingStatusesvE31embed_all_inside_a_child_window
0000000000001650 b _ZZL33DemoWindowWidgetsQueryingStatusesvE3str
0000000000004480 d _ZZL33DemoWindowWidgetsQueryingStatusesvE5col4f
000000000000447c d _ZZL33DemoWindowWidgetsQueryingStatusesvE7current
0000000000004478 d _ZZL33DemoWindowWidgetsQueryingStatusesvE7current_0
0000000000004490 d _ZZL33DemoWindowWidgetsQueryingStatusesvE9item_type
00000000000045c0 d _ZZL34DemoWindowWidgetsCollapsingHeadersvE14closable_group
0000000000004443 d _ZZL40DemoWindowWidgetsSelectionAndMultiSelectP19ImGuiDemoWindowDataE11use_clipper
0000000000001370 b _ZZL40DemoWindowWidgetsSelectionAndMultiSelectP19ImGuiDemoWindowDataE11widget_type
0000000000004442 d _ZZL40DemoWindowWidgetsSelectionAndMultiSelectP19ImGuiDemoWindowDataE12use_deletion
0000000000001548 b _ZZL40DemoWindowWidgetsSelectionAndMultiSelectP19ImGuiDemoWindowDataE13items_next_id
0000000000001350 b _ZZL40DemoWindowWidgetsSelectionAndMultiSelectP19ImGuiDemoWindowDataE13items_next_id_0
0000000000001374 b _ZZL40DemoWindowWidgetsSelectionAndMultiSelectP19ImGuiDemoWindowDataE13show_in_table
0000000000004441 d _ZZL40DemoWindowWidgetsSelectionAndMultiSelectP19ImGuiDemoWindowDataE13use_drag_drop
00000000000013c0 b _ZZL40DemoWindowWidgetsSelectionAndMultiSelectP19ImGuiDemoWindowDataE15selections_data
0000000000004440 d _ZZL40DemoWindowWidgetsSelectionAndMultiSelectP19ImGuiDemoWindowDataE17show_color_button
0000000000001300 b _ZZL40DemoWindowWidgetsSelectionAndMultiSelectP19ImGuiDemoWindowDataE26request_deletion_from_menu
00000000000014c0 b _ZZL40DemoWindowWidgetsSelectionAndMultiSelectP19ImGuiDemoWindowDataE3dlb
0000000000004448 d _ZZL40DemoWindowWidgetsSelectionAndMultiSelectP19ImGuiDemoWindowDataE5flags
0000000000004444 d _ZZL40DemoWindowWidgetsSelectionAndMultiSelectP19ImGuiDemoWindowDataE5flags_0
000000000000443c d _ZZL40DemoWindowWidgetsSelectionAndMultiSelectP19ImGuiDemoWindowDataE5flags_1
00000000000015a0 b _ZZL40DemoWindowWidgetsSelectionAndMultiSelectP19ImGuiDemoWindowDataE5items
0000000000001450 b _ZZL40DemoWindowWidgetsSelectionAndMultiSelectP19ImGuiDemoWindowDataE5items_0
0000000000001360 b _ZZL40DemoWindowWidgetsSelectionAndMultiSelectP19ImGuiDemoWindowDataE5items_1
000000000000444c d _ZZL40DemoWindowWidgetsSelectionAndMultiSelectP19ImGuiDemoWindowDataE8selected
0000000000001630 b _ZZL40DemoWindowWidgetsSelectionAndMultiSelectP19ImGuiDemoWindowDataE9selection
0000000000001600 b _ZZL40DemoWindowWidgetsSelectionAndMultiSelectP19ImGuiDemoWindowDataE9selection_0
00000000000015c0 b _ZZL40DemoWindowWidgetsSelectionAndMultiSelectP19ImGuiDemoWindowDataE9selection_1
0000000000001560 b _ZZL40DemoWindowWidgetsSelectionAndMultiSelectP19ImGuiDemoWindowDataE9selection_2
0000000000001480 b _ZZL40DemoWindowWidgetsSelectionAndMultiSelectP19ImGuiDemoWindowDataE9selection_3
0000000000001380 b _ZZL40DemoWindowWidgetsSelectionAndMultiSelectP19ImGuiDemoWindowDataE9selection_4
0000000000001320 b _ZZL40DemoWindowWidgetsSelectionAndMultiSelectP19ImGuiDemoWindowDataE9selection_5
0000000000001e20 t _ZZL40DemoWindowWidgetsSelectionAndMultiSelectP19ImGuiDemoWindowDataEN16ExampleTreeFuncs21TreeSetAllInOpenNodesEP15ExampleTreeNodeP26ImGuiSelectionBasicStorageb.constprop.0
00000000000022e0 t _ZZL40DemoWindowWidgetsSelectionAndMultiSelectP19ImGuiDemoWindowDataEN16ExampleTreeFuncs30TreeCloseAndUnselectChildNodesEP15ExampleTreeNodeP26ImGuiSelectionBasicStoragei.constprop.5
0000000000002a90 t _ZZL40DemoWindowWidgetsSelectionAndMultiSelectP19ImGuiDemoWindowDataEN16ExampleTreeFuncs8DrawNodeEP15ExampleTreeNodeP26ImGuiSelectionBasicStorage.constprop.0
0000000000001740 t _ZZL40DemoWindowWidgetsSelectionAndMultiSelectP19ImGuiDemoWindowDataENUlP26ImGuiSelectionBasicStorageiE_4_FUNES2_i
0000000000000030 t _ZZL40DemoWindowWidgetsSelectionAndMultiSelectP19ImGuiDemoWindowDataENUlP29ImGuiSelectionExternalStorageibE_4_FUNES2_ib
0000000000000000 W _ZZN18ExampleDualListBox22ApplySelectionRequestsEP18ImGuiMultiSelectIOiENUlP26ImGuiSelectionBasicStorageiE_4_FUNES3_i
0000000000000000 W _ZZN20ExampleAssetsBrowser4DrawEPKcPbENUlP26ImGuiSelectionBasicStorageiE_4_FUNES4_i
0000000000001c0d b _ZZN5ImGui14ShowDemoWindowEPbE10no_docking
0000000000001c12 b _ZZN5ImGui14ShowDemoWindowEPbE11no_collapse
0000000000001c17 b _ZZN5ImGui14ShowDemoWindowEPbE11no_titlebar
0000000000001c16 b _ZZN5ImGui14ShowDemoWindowEPbE12no_scrollbar
0000000000001c0f b _ZZN5ImGui14ShowDemoWindowEPbE13no_background
0000000000001c0c b _ZZN5ImGui14ShowDemoWindowEPbE16unsaved_document
0000000000001c0e b _ZZN5ImGui14ShowDemoWindowEPbE17no_bring_to_front
0000000000001c10 b _ZZN5ImGui14ShowDemoWindowEPbE6no_nav
0000000000001c15 b _ZZN5ImGui14ShowDemoWindowEPbE7no_menu
0000000000001c14 b _ZZN5ImGui14ShowDemoWindowEPbE7no_move
0000000000001c11 b _ZZN5ImGui14ShowDemoWindowEPbE8no_close
0000000000001c20 b _ZZN5ImGui14ShowDemoWindowEPbE9demo_data
0000000000001c13 b _ZZN5ImGui14ShowDemoWindowEPbE9no_resize
0000000000000cd4 b _ZZN5ImGui15ShowAboutWindowEPbE16show_config_info
000000000000065c b _ZZN5ImGui15ShowStyleEditorEP10ImGuiStyleE11alpha_flags
0000000000000798 b _ZZN5ImGui15ShowStyleEditorEP10ImGuiStyleE11output_dest
00000000000007c0 b _ZZN5ImGui15ShowStyleEditorEP10ImGuiStyleE15ref_saved_style
0000000000000055 d _ZZN5ImGui15ShowStyleEditorEP10ImGuiStyleE20output_only_modified
0000000000000056 d _ZZN5ImGui15ShowStyleEditorEP10ImGuiStyleE4init
0000000000000680 b _ZZN5ImGui15ShowStyleEditorEP10ImGuiStyleE6filter
0000000000000058 d _ZZN5ImGui17ShowStyleSelectorEPKcE9style_idx
                 U __assert_fail
                 U __ctype_toupper_loc
                 U __cxa_atexit
                 U __cxa_guard_abort
                 U __cxa_guard_acquire
                 U __cxa_guard_release
                 U __dso_handle
                 U __gxx_personality_v0
                 U __snprintf_chk
                 U __sprintf_chk
                 U __stack_chk_fail
0000000000000150 t __tcf_0
                 U __vsnprintf_chk
                 U cosf
                 U floorf
                 U fmodf
                 U memchr
                 U memcpy
                 U memmove
                 U powf
                 U qsort
                 U sinf
                 U snprintf
                 U strchr
                 U strcmp
                 U strlen
                 U strstr

imgui_widgets.cpp.o:
0000000000000004 r .LC1
00000000000000c8 r .LC10
00000000000000bd r .LC100
0000000000000a90 r .LC101
0000000000000038 r .LC103
00000000000000c0 r .LC104
000000000000003c r .LC105
0000000000000ab8 r .LC106
0000000000000b00 r .LC107
0000000000000040 r .LC108
00000000000000c4 r .LC109
0000000000000110 r .LC11
00000000000000d1 r .LC110
0000000000000b38 r .LC111
0000000000000b80 r .LC112
0000000000000c08 r .LC113
00000000000000d3 r .LC114
0000000000000c68 r .LC115
00000000000000e0 r .LC116
00000000000000e2 r .LC117
0000000000000ca0 r .LC118
0000000000000cc0 r .LC119
0000000000000130 r .LC12
0000000000000d40 r .LC120
0000000000000d98 r .LC121
00000000000000e4 r .LC122
0000000000000df0 r .LC123
0000000000000e38 r .LC124
0000000000000e88 r .LC125
0000000000000ed0 r .LC126
0000000000000f00 r .LC127
0000000000000f50 r .LC128
0000000000000178 r .LC13
0000000000000040 r .LC130
0000000000000048 r .LC131
0000000000000050 r .LC132
0000000000000fb0 r .LC133
0000000000000fe8 r .LC134
0000000000001008 r .LC135
0000000000001058 r .LC136
00000000000000fb r .LC137
0000000000001080 r .LC138
00000000000010a0 r .LC139
0000000000000198 r .LC14
00000000000010e8 r .LC140
0000000000000112 r .LC141
0000000000001130 r .LC142
0000000000000130 r .LC143
0000000000001160 r .LC144
0000000000000147 r .LC145
000000000000014c r .LC146
0000000000000151 r .LC147
0000000000001188 r .LC148
00000000000011b8 r .LC149
0000000000000218 r .LC15
00000000000011d8 r .LC150
000000000000016e r .LC151
0000000000001208 r .LC152
0000000000000044 r .LC153
0000000000000189 r .LC154
0000000000001258 r .LC155
00000000000012a8 r .LC156
00000000000012e0 r .LC157
0000000000001320 r .LC158
0000000000001360 r .LC159
0000000000000258 r .LC16
0000000000001398 r .LC160
00000000000000a8 r .LC161
0000000000000194 r .LC162
00000000000013d0 r .LC163
0000000000001408 r .LC164
0000000000001450 r .LC165
000000000000019e r .LC166
0000000000000048 r .LC167
000000000000004c r .LC168
00000000000002a0 r .LC17
0000000000000050 r .LC170
00000000000001b8 r .LC172
00000000000001bf r .LC173
00000000000001c6 r .LC174
0000000000001478 r .LC175
00000000000001cc r .LC176
00000000000001d5 r .LC177
00000000000014a8 r .LC178
00000000000014d0 r .LC179
00000000000002d0 r .LC18
00000000000001eb r .LC180
0000000000000054 r .LC181
0000000000000204 r .LC182
0000000000001510 r .LC183
0000000000001540 r .LC184
0000000000001568 r .LC185
0000000000001598 r .LC187
00000000000015d0 r .LC188
0000000000000218 r .LC189
0000000000000010 r .LC19
0000000000001610 r .LC190
0000000000000225 r .LC191
0000000000000058 r .LC192
000000000000005c r .LC193
0000000000000060 r .LC194
0000000000001668 r .LC195
00000000000016b0 r .LC196
0000000000001760 r .LC197
0000000000001790 r .LC198
00000000000017e8 r .LC199
0000000000000000 r .LC2
0000000000000310 r .LC20
0000000000001810 r .LC200
0000000000001840 r .LC201
0000000000001898 r .LC202
00000000000018e0 r .LC203
0000000000001928 r .LC204
00000000000019a0 r .LC205
00000000000019d8 r .LC206
0000000000001a08 r .LC207
000000000000023a r .LC208
0000000000001a38 r .LC209
0000000000000350 r .LC21
0000000000001a80 r .LC211
0000000000001ad0 r .LC212
0000000000000249 r .LC213
0000000000000255 r .LC214
0000000000000000 r .LC217
0000000000000266 r .LC218
000000000000026a r .LC219
0000000000000388 r .LC22
0000000000000064 r .LC220
000000000000026e r .LC221
0000000000001b08 r .LC222
0000000000001b60 r .LC223
0000000000000058 r .LC224
0000000000000272 r .LC225
0000000000000068 r .LC226
0000000000000276 r .LC227
0000000000000278 r .LC228
000000000000027f r .LC229
00000000000003d0 r .LC23
0000000000000060 r .LC232
000000000000028e r .LC233
0000000000000296 r .LC234
000000000000029a r .LC235
000000000000029e r .LC236
00000000000002a2 r .LC237
00000000000002a9 r .LC238
0000000000000068 r .LC239
0000000000000400 r .LC24
00000000000002b4 r .LC240
00000000000002be r .LC241
00000000000002c3 r .LC242
00000000000002e0 r .LC243
00000000000002ee r .LC244
00000000000002fc r .LC245
0000000000001b98 r .LC247
0000000000001bd0 r .LC248
000000000000030e r .LC249
0000000000000448 r .LC25
0000000000000325 r .LC250
0000000000000331 r .LC251
0000000000000335 r .LC252
0000000000001c00 r .LC253
0000000000001c48 r .LC254
0000000000001c78 r .LC255
0000000000001cc0 r .LC256
0000000000001d18 r .LC257
0000000000001d40 r .LC258
0000000000000352 r .LC259
0000000000000470 r .LC26
000000000000006c r .LC260
0000000000000369 r .LC261
0000000000001d88 r .LC262
0000000000000070 r .LC263
0000000000000070 r .LC266
0000000000001e18 r .LC267
0000000000001e98 r .LC268
0000000000000382 r .LC269
00000000000004d8 r .LC27
0000000000000396 r .LC270
0000000000001ec0 r .LC271
00000000000003a0 r .LC273
00000000000003a5 r .LC274
00000000000003ab r .LC275
00000000000003b2 r .LC276
00000000000003b9 r .LC277
00000000000003c1 r .LC278
00000000000003ca r .LC279
0000000000000008 r .LC28
00000000000003e5 r .LC280
0000000000000402 r .LC281
000000000000040c r .LC282
0000000000001ee8 r .LC283
0000000000000425 r .LC284
0000000000001f18 r .LC285
0000000000001f50 r .LC287
0000000000001f88 r .LC288
0000000000000441 r .LC289
000000000000000c r .LC29
0000000000000456 r .LC290
0000000000001ff0 r .LC291
0000000000000464 r .LC292
0000000000002020 r .LC293
0000000000000074 r .LC294
0000000000000078 r .LC295
000000000000007c r .LC296
0000000000000481 r .LC297
0000000000002058 r .LC298
0000000000000497 r .LC299
0000000000000028 r .LC3
0000000000000000 r .LC30
0000000000000499 r .LC300
0000000000000080 r .LC301
0000000000000084 r .LC302
000000000000049b r .LC303
0000000000002080 r .LC305
00000000000020b8 r .LC306
0000000000002110 r .LC307
0000000000002140 r .LC308
00000000000004aa r .LC309
0000000000002190 r .LC311
00000000000004bb r .LC312
00000000000021d8 r .LC313
0000000000002210 r .LC314
0000000000002248 r .LC315
0000000000002280 r .LC316
00000000000004d6 r .LC317
00000000000022b8 r .LC318
0000000000002308 r .LC319
0000000000000010 r .LC32
00000000000004e2 r .LC320
0000000000002340 r .LC321
0000000000002368 r .LC322
0000000000000088 r .LC323
00000000000023a0 r .LC324
0000000000000070 r .LC325
00000000000004e6 r .LC326
00000000000004ea r .LC327
000000000000008c r .LC328
00000000000023e0 r .LC329
0000000000000020 r .LC33
00000000000004ee r .LC330
0000000000002408 r .LC331
0000000000002448 r .LC332
0000000000002480 r .LC333
0000000000000506 r .LC334
00000000000024c0 r .LC335
000000000000051f r .LC336
0000000000002518 r .LC337
000000000000053c r .LC338
0000000000000090 r .LC339
0000000000000030 r .LC34
0000000000000549 r .LC340
000000000000054b r .LC341
0000000000002570 r .LC342
00000000000025d0 r .LC343
0000000000002600 r .LC344
0000000000002680 r .LC345
000000000000054d r .LC346
0000000000000094 r .LC347
0000000000000078 r .LC348
00000000000026b0 r .LC349
0000000000000010 r .LC35
00000000000026f8 r .LC350
0000000000002738 r .LC351
0000000000002788 r .LC352
00000000000027b0 r .LC353
00000000000027f0 r .LC354
0000000000000058 r .LC355
0000000000002838 r .LC356
00000000000028c0 r .LC357
00000000000028e0 r .LC358
0000000000002940 r .LC359
0000000000000018 r .LC36
00000000000029a8 r .LC360
0000000000002a00 r .LC361
0000000000002a60 r .LC362
0000000000000557 r .LC363
0000000000002ac0 r .LC364
0000000000002b10 r .LC365
0000000000000080 r .LC367
000000000000056a r .LC369
0000000000000020 r .LC37
0000000000000040 r .LC370
0000000000000050 r .LC371
0000000000000583 r .LC372
0000000000000593 r .LC373
0000000000002b88 r .LC374
0000000000002be8 r .LC375
0000000000002c08 r .LC376
0000000000002c30 r .LC377
00000000000005ad r .LC378
0000000000002c60 r .LC379
0000000000000004 r .LC38
00000000000005ca r .LC380
0000000000002ca0 r .LC381
0000000000002cc8 r .LC382
0000000000002d08 r .LC383
0000000000000098 r .LC384
0000000000002d38 r .LC387
00000000000005e5 r .LC388
0000000000002d98 r .LC389
0000000000000078 r .LC39
0000000000002e18 r .LC390
0000000000002e90 r .LC391
00000000000005f6 r .LC392
00000000000005f8 r .LC393
00000000000005fa r .LC394
00000000000005ff r .LC395
0000000000000000 r .LC396
0000000000000068 r .LC397
000000000000009c r .LC398
00000000000000a0 r .LC399
0000000000000000 r .LC4
0000000000000508 r .LC40
00000000000000a4 r .LC400
00000000000000a8 r .LC401
0000000000000000 r .LC402
0000000000000000 r .LC403
0000000000000000 r .LC404
0000000000000000 r .LC405
0000000000000000 r .LC406
0000000000000088 r .LC407
0000000000000090 r .LC408
0000000000000098 r .LC409
0000000000000550 r .LC41
00000000000000a0 r .LC410
0000000000002ec8 r .LC411
0000000000002f40 r .LC412
0000000000000602 r .LC413
0000000000000608 r .LC414
000000000000060e r .LC415
0000000000000616 r .LC416
0000000000003028 r .LC417
00000000000000ac r .LC418
000000000000061c r .LC419
0000000000000588 r .LC42
0000000000000060 r .LC420
0000000000000623 r .LC421
0000000000000634 r .LC422
0000000000000641 r .LC423
000000000000064f r .LC424
00000000000000b0 r .LC425
0000000000000656 r .LC426
00000000000000b4 r .LC428
0000000000000070 r .LC429
00000000000005a8 r .LC43
0000000000000080 r .LC430
0000000000003070 r .LC431
00000000000000b8 r .LC432
00000000000000bc r .LC433
00000000000000c0 r .LC434
000000000000065f r .LC435
00000000000000c4 r .LC436
0000000000000663 r .LC437
00000000000030c8 r .LC438
0000000000000666 r .LC439
000000000000002a r .LC44
000000000000066a r .LC440
00000000000000a8 r .LC441
0000000000000670 r .LC442
000000000000067a r .LC443
0000000000000682 r .LC444
000000000000068b r .LC445
0000000000000696 r .LC446
000000000000069c r .LC447
00000000000006a2 r .LC448
00000000000000c8 r .LC449
00000000000005e8 r .LC45
00000000000000cc r .LC450
00000000000006a8 r .LC451
00000000000006b5 r .LC452
00000000000006c9 r .LC453
00000000000030f8 r .LC454
0000000000003188 r .LC455
00000000000031b8 r .LC456
0000000000003210 r .LC457
0000000000003238 r .LC458
0000000000003290 r .LC459
000000000000003d r .LC46
00000000000000d0 r .LC460
00000000000000d4 r .LC461
00000000000032b8 r .LC462
00000000000000b0 r .LC463
00000000000000b8 r .LC464
0000000000003350 r .LC465
00000000000006d3 r .LC466
00000000000000d8 r .LC467
00000000000000dc r .LC468
0000000000000640 r .LC47
0000000000000068 r .LC48
0000000000000008 r .LC49
0000000000000000 r .LC5
0000000000000670 r .LC50
00000000000006a8 r .LC51
00000000000006f0 r .LC52
0000000000000730 r .LC53
0000000000000000 r .LC54
0000000000000008 r .LC55
000000000000004d r .LC56
000000000000004e r .LC57
000000000000000c r .LC58
0000000000000780 r .LC59
000000000000000a r .LC6
0000000000000053 r .LC60
00000000000007d8 r .LC61
0000000000000810 r .LC62
0000000000000858 r .LC63
000000000000005b r .LC64
000000000000005d r .LC65
0000000000000888 r .LC66
00000000000008d8 r .LC67
0000000000000010 r .LC68
0000000000000014 r .LC69
0000000000000000 r .LC7
0000000000000018 r .LC70
000000000000005f r .LC71
0000000000000068 r .LC72
0000000000000908 r .LC73
0000000000000071 r .LC74
0000000000000930 r .LC75
0000000000000086 r .LC76
0000000000000970 r .LC77
00000000000009d0 r .LC78
0000000000000030 r .LC8
000000000000009d r .LC81
00000000000000a1 r .LC82
0000000000000028 r .LC83
000000000000001c r .LC84
0000000000000030 r .LC85
0000000000000020 r .LC87
0000000000000074 r .LC88
0000000000000024 r .LC89
0000000000000080 r .LC9
0000000000000028 r .LC90
00000000000000a5 r .LC91
0000000000000038 r .LC92
000000000000002c r .LC94
0000000000000030 r .LC95
0000000000000034 r .LC96
0000000000000a00 r .LC97
0000000000000a38 r .LC98
00000000000000ac r .LC99
0000000000000000 V DW.ref.__gxx_personality_v0
                 U GImGui
                 U _Unwind_Resume
                 U _Z12ImLowerBoundP16ImGuiStoragePairS0_j
                 U _Z14ImFormatStringPcmPKcz
                 U _Z15ImStrTrimBlanksPc
                 U _Z16ImTextCharToUtf8Pcj
                 U _Z18ImTextCharFromUtf8PjPKcS1_
                 U _Z20ImFontCalcTextSizeExP6ImFontfffPKcS2_S2_PS2_P6ImVec2i
000000000000eca0 T _Z20ImParseFormatFindEndPKc
000000000000ec60 T _Z22ImParseFormatFindStartPKc
000000000000f260 T _Z22ImParseFormatPrecisionPKci
                 U _Z22ImTriangleClosestPointRK6ImVec2S1_S1_S1_
                 U _Z23ImTriangleContainsPointRK6ImVec2S1_S1_S1_
                 U _Z27ImFormatStringToTempBufferVPPKcS1_S0_P13__va_list_tag
                 U _Z27ImTextCountUtf8BytesFromStrPKtS0_
                 U _Z27ImTriangleBarycentricCoordsRK6ImVec2S1_S1_S1_RfS2_S2_
                 U _Z28ImFontCalcWordWrapPositionExP6ImFontfPKcS2_fi
000000000000ed10 T _Z28ImParseFormatTrimDecorationsPKcPcm
                 U _Z28ImTextCountUtf8BytesFromCharPKcS0_
                 U _Z31ImTextFindPreviousUtf8CodepointPKcS0_
000000000000edf0 T _Z32ImParseFormatSanitizeForPrintingPKcPcm
000000000000eee0 T _Z32ImParseFormatSanitizeForScanningPKcPcm
                 U _Z8ImStrbolPKcS0_
                 U _Z9ImHashStrPKcmj
                 U _Z9ImStrncpyPcPKcm
00000000000007a0 t _ZL13CalcScopeRectP24ImGuiMultiSelectTempDataP11ImGuiWindow
00000000000000e0 d _ZL13GDataTypeInfo
00000000000000c0 t _ZL16Plot_ArrayGetterPvi
0000000000000550 t _ZL18ColorEditRestoreHSPKfPfS1_S1_
0000000000002860 t _ZL19IsRootOfOpenMenuSetv
0000000000000020 t _ZL21BoxSelectPreStartDragjx
00000000000004f0 t _ZL21InputTextCalcTextSizeP12ImGuiContextPKcS2_S2_PS2_P6ImVec2i.part.0
00000000000000a0 t _ZL22PairComparerByValueIntPKvS0_
0000000000000ab0 t _ZL22TreeNodeStoreStackDataif
0000000000000000 t _ZL23ShrinkWidthItemComparerPKvS0_
0000000000002e70 t _ZL24InputTextFilterCharacterP12ImGuiContextPjiPFiP26ImGuiInputTextCallbackDataEPvb
00000000000000e0 t _ZL24TabItemComparerBySectionPKvS0_
0000000000000170 t _ZL26RenderArrowsForVerticalBarP10ImDrawList6ImVec2S1_ff
0000000000000300 t _ZL27DebugLogMultiSelectRequestsPKcPK18ImGuiMultiSelectIO
0000000000002bf0 t _ZL27InputTextReconcileUndoStateP19ImGuiInputTextStatePKciS2_i
0000000000000160 t _ZL27TabItemComparerByBeginOrderPKvS0_
0000000000000950 t _ZL47ImGuiSelectionBasicStorage_BatchSetItemSelectedP26ImGuiSelectionBasicStoragejbii
                 U _ZN10ImDrawList11AddPolylineEPK6ImVec2ijif
                 U _ZN10ImDrawList11AddTriangleERK6ImVec2S2_S2_jf
                 U _ZN10ImDrawList11PrimReserveEii
                 U _ZN10ImDrawList13AddRectFilledERK6ImVec2S2_jfi
                 U _ZN10ImDrawList13PathArcToFastERK6ImVec2fii
                 U _ZN10ImDrawList15AddCircleFilledERK6ImVec2fji
                 U _ZN10ImDrawList17_TryMergeDrawCmdsEv
                 U _ZN10ImDrawList19AddConvexPolyFilledEPK6ImVec2ij
                 U _ZN10ImDrawList23AddRectFilledMultiColorERK6ImVec2S2_jjjj
                 U _ZN10ImDrawList7AddLineERK6ImVec2S2_jf
                 U _ZN10ImDrawList7AddRectERK6ImVec2S2_jfif
                 U _ZN10ImDrawList8AddImageE12ImTextureRefRK6ImVec2S3_S3_S3_j
                 U _ZN10ImDrawList9AddCircleERK6ImVec2fjif
                 U _ZN10ImDrawList9PathArcToERK6ImVec2fffi
                 U _ZN11ImFontBaked14GetCharAdvanceEt
                 U _ZN11ImFontBaked9FindGlyphEt
000000000001cb70 T _ZN11ImGuiTabBarC1Ev
000000000001cb70 T _ZN11ImGuiTabBarC2Ev
                 U _ZN11ImGuiWindow5GetIDEPKcS1_
                 U _ZN11ImGuiWindow5GetIDEPKv
                 U _ZN12ImGuiStorage14BuildSortByKeyEv
                 U _ZN12ImGuiStorage6SetIntEji
                 U _ZN12ImGuiStorage9GetIntRefEji
                 U _ZN15ImGuiTextBuffer6appendEPKcS1_
                 U _ZN16ImGuiListClipper19IncludeItemsByIndexEii
                 U _ZN16ImGuiListClipper4StepEv
                 U _ZN16ImGuiListClipper5BeginEif
                 U _ZN16ImGuiListClipperC1Ev
                 U _ZN16ImGuiListClipperD1Ev
000000000001aa90 T _ZN16ImGuiMenuColumns11DeclColumnsEffff
000000000001a9c0 T _ZN16ImGuiMenuColumns18CalcNextTotalWidthEb
000000000001a910 T _ZN16ImGuiMenuColumns6UpdateEfb
000000000000f6f0 T _ZN19ImGuiInputTextState11CursorClampEv
000000000000f4d0 T _ZN19ImGuiInputTextState12OnKeyPressedEi
000000000000f540 T _ZN19ImGuiInputTextState13OnCharPressedEj
000000000000f750 T _ZN19ImGuiInputTextState14ClearSelectionEv
000000000000f6e0 T _ZN19ImGuiInputTextState15CursorAnimResetEv
000000000000f820 T _ZN19ImGuiInputTextState25ReloadUserBufAndMoveToEndEv
000000000000f7e0 T _ZN19ImGuiInputTextState25ReloadUserBufAndSelectAllEv
000000000000f800 T _ZN19ImGuiInputTextState29ReloadUserBufAndKeepSelectionEv
000000000000f7c0 T _ZN19ImGuiInputTextState9SelectAllEv
000000000000f3f0 T _ZN19ImGuiInputTextStateC1Ev
000000000000f3f0 T _ZN19ImGuiInputTextStateC2Ev
0000000000000000 t _ZN19ImGuiInputTextStateC2Ev.cold
000000000000f480 T _ZN19ImGuiInputTextStateD1Ev
000000000000f480 T _ZN19ImGuiInputTextStateD2Ev
000000000000f860 T _ZN26ImGuiInputTextCallbackData11DeleteCharsEii
000000000000f910 T _ZN26ImGuiInputTextCallbackData11InsertCharsEiPKcS1_
000000000000f840 T _ZN26ImGuiInputTextCallbackDataC1Ev
000000000000f840 T _ZN26ImGuiInputTextCallbackDataC2Ev
0000000000018da0 T _ZN26ImGuiSelectionBasicStorage13ApplyRequestsEP18ImGuiMultiSelectIO
0000000000018d40 T _ZN26ImGuiSelectionBasicStorage15SetItemSelectedEjb
0000000000018c10 T _ZN26ImGuiSelectionBasicStorage19GetNextSelectedItemEPPvPj
0000000000018ba0 T _ZN26ImGuiSelectionBasicStorage4SwapERS_
0000000000018b30 T _ZN26ImGuiSelectionBasicStorage5ClearEv
0000000000018af0 T _ZN26ImGuiSelectionBasicStorageC1Ev
0000000000018af0 T _ZN26ImGuiSelectionBasicStorageC2Ev
0000000000019100 T _ZN29ImGuiSelectionExternalStorage13ApplyRequestsEP18ImGuiMultiSelectIO
00000000000190e0 T _ZN29ImGuiSelectionExternalStorageC1Ev
00000000000190e0 T _ZN29ImGuiSelectionExternalStorageC2Ev
                 U _ZN5ImGui10BeginChildEPKcRK6ImVec2ii
                 U _ZN5ImGui10BeginChildEjRK6ImVec2ii
000000000000d720 T _ZN5ImGui10BeginComboEPKcS1_i
                 U _ZN5ImGui10BeginGroupEv
                 U _ZN5ImGui10BeginPopupEPKci
0000000000007220 T _ZN5ImGui10BulletTextEPKcz
000000000002b520 T _ZN5ImGui10ColorEdit3EPKcPfi
000000000002a050 T _ZN5ImGui10ColorEdit4EPKcPfi
000000000002e200 T _ZN5ImGui10DragFloat2EPKcPffffS1_i
000000000002dff0 T _ZN5ImGui10DragFloat3EPKcPffffS1_i
000000000002ddc0 T _ZN5ImGui10DragFloat4EPKcPffffS1_i
0000000000029180 T _ZN5ImGui10DragScalarEPKciPvfPKvS4_S1_i
0000000000019560 T _ZN5ImGui10EndListBoxEv
000000000001aed0 T _ZN5ImGui10EndMenuBarEv
000000000001f880 T _ZN5ImGui10EndTabItemEv
                 U _ZN5ImGui10EndTooltipEv
                 U _ZN5ImGui10GetKeyDataEP12ImGuiContext8ImGuiKey
0000000000027ff0 T _ZN5ImGui10InputFloatEPKcPfffS1_i
0000000000006f00 T _ZN5ImGui10LabelTextVEPKcS1_P13__va_list_tag
000000000001c430 T _ZN5ImGui10MenuItemExEPKcS1_S1_bb
                 U _ZN5ImGui10RenderTextE6ImVec2PKcS2_b
0000000000015c00 T _ZN5ImGui10SelectableEPKcPbiRK6ImVec2
0000000000015050 T _ZN5ImGui10SelectableEPKcbiRK6ImVec2
0000000000017700 t _ZN5ImGui10SelectableEPKcbiRK6ImVec2.constprop.0
                 U _ZN5ImGui10SetFocusIDEjP11ImGuiWindow
                 U _ZN5ImGui10SetScrollXEP11ImGuiWindowf
                 U _ZN5ImGui10SetScrollYEP11ImGuiWindowf
                 U _ZN5ImGui10SetTooltipEPKcz
0000000000030dd0 T _ZN5ImGui10SliderInt2EPKcPiiiS1_i
0000000000030bd0 T _ZN5ImGui10SliderInt3EPKcPiiiS1_i
00000000000309b0 T _ZN5ImGui10SliderInt4EPKcPiiiS1_i
0000000000016d70 T _ZN5ImGui10TreeNodeExEPKci
00000000000174d0 T _ZN5ImGui10TreeNodeExEPKciS1_z
0000000000017210 T _ZN5ImGui10TreeNodeExEPKviPKcz
0000000000031290 T _ZN5ImGui10VSliderIntEPKcRK6ImVec2PiiiS1_i
0000000000008c80 T _ZN5ImGui11ArrowButtonEPKc8ImGuiDir
000000000001b520 T _ZN5ImGui11BeginMenuExEPKcS1_b
000000000001d150 T _ZN5ImGui11BeginTabBarEPKci
0000000000007490 T _ZN5ImGui11BulletTextVEPKcP13__va_list_tag
0000000000008e90 T _ZN5ImGui11CloseButtonEjRK6ImVec2
00000000000107d0 T _ZN5ImGui11ColorButtonEPKcRK6ImVec4iRK6ImVec2
00000000000298d0 T _ZN5ImGui11DragScalarNEPKciPvifPKvS4_S1_i
000000000002dc10 t _ZN5ImGui11DragScalarNEPKciPvifPKvS4_S1_i.constprop.0
000000000002de40 t _ZN5ImGui11DragScalarNEPKciPvifPKvS4_S1_i.constprop.1
000000000002e070 t _ZN5ImGui11DragScalarNEPKciPvifPKvS4_S1_i.constprop.2
                 U _ZN5ImGui11EndDisabledEv
                 U _ZN5ImGui11FocusWindowEP11ImGuiWindowi
                 U _ZN5ImGui11GetColorU32ERK6ImVec4
                 U _ZN5ImGui11GetColorU32Eif
000000000000a960 T _ZN5ImGui11ImageButtonEPKc12ImTextureRefRK6ImVec2S5_S5_RK6ImVec4S8_
000000000000a1c0 T _ZN5ImGui11ImageWithBgE12ImTextureRefRK6ImVec2S3_S3_RK6ImVec4S6_
00000000000280c0 T _ZN5ImGui11InputDoubleEPKcPdddS1_i
00000000000284d0 T _ZN5ImGui11InputFloat2EPKcPfS1_i
0000000000028c90 T _ZN5ImGui11InputFloat3EPKcPfS1_i
00000000000288b0 T _ZN5ImGui11InputFloat4EPKcPfS1_i
00000000000279a0 T _ZN5ImGui11InputScalarEPKciPvPKvS4_S1_i
0000000000021f20 T _ZN5ImGui11InputTextExEPKcS1_PciRK6ImVec2iPFiP26ImGuiInputTextCallbackDataEPv
00000000000000f5 t _ZN5ImGui11InputTextExEPKcS1_PciRK6ImVec2iPFiP26ImGuiInputTextCallbackDataEPv.cold
                 U _ZN5ImGui11IsClippedExERK6ImRectj
                 U _ZN5ImGui11IsMouseDownEij
                 U _ZN5ImGui11IsPopupOpenEji
                 U _ZN5ImGui11KeepAliveIDEj
                 U _ZN5ImGui11OpenPopupExEji
                 U _ZN5ImGui11PopClipRectEv
                 U _ZN5ImGui11PopItemFlagEv
                 U _ZN5ImGui11PopStyleVarEi
000000000000b0f0 T _ZN5ImGui11ProgressBarEfRK6ImVec2PKc
000000000000b0c0 T _ZN5ImGui11RadioButtonEPKcPii
000000000000ac60 T _ZN5ImGui11RadioButtonEPKcb
                 U _ZN5ImGui11RenderArrowEP10ImDrawList6ImVec2j8ImGuiDirf
                 U _ZN5ImGui11RenderFrameE6ImVec2S0_jbf
0000000000009550 T _ZN5ImGui11ScrollbarExERK6ImRectj9ImGuiAxisPxxxi
000000000000bdb0 T _ZN5ImGui11SeparatorExEif
                 U _ZN5ImGui11SetActiveIDEjP11ImGuiWindow
                 U _ZN5ImGui11SetKeyOwnerE8ImGuiKeyji
00000000000306d0 T _ZN5ImGui11SliderAngleEPKcPfffS1_i
0000000000030690 T _ZN5ImGui11SliderFloatEPKcPfffS1_i
0000000000008690 T _ZN5ImGui11SmallButtonEPKc
0000000000006e50 T _ZN5ImGui11TextAlignedEffPKcz
00000000000065d0 T _ZN5ImGui11TextColoredERK6ImVec4PKcz
0000000000006940 T _ZN5ImGui11TextWrappedEPKcz
0000000000016dd0 T _ZN5ImGui11TreeNodeExVEPKciS1_P13__va_list_tag
0000000000016e70 T _ZN5ImGui11TreeNodeExVEPKviPKcP13__va_list_tag
                 U _ZN5ImGui12BeginChildExEPKcjRK6ImVec2ii
00000000000191e0 T _ZN5ImGui12BeginListBoxEPKcRK6ImVec2
000000000001ab60 T _ZN5ImGui12BeginMenuBarEv
0000000000021cf0 T _ZN5ImGui12BeginTabItemEPKcPbi
                 U _ZN5ImGui12CalcItemSizeE6ImVec2ff
                 U _ZN5ImGui12CalcTextSizeEPKcS1_bf
000000000002d7e0 T _ZN5ImGui12ColorPicker3EPKcPfi
000000000002b530 T _ZN5ImGui12ColorPicker4EPKcPfiPKf
00000000000103a0 T _ZN5ImGui12ColorTooltipEPKcPKfi
0000000000028cd0 T _ZN5ImGui12DragBehaviorEjiPvfPKvS2_PKci
00000000000123b0 T _ZN5ImGui12EndBoxSelectERK6ImRecti
0000000000027e40 T _ZN5ImGui12InputScalarNEPKciPviPKvS4_S1_i
0000000000028510 t _ZN5ImGui12InputScalarNEPKciPviPKvS4_S1_i.constprop.0
00000000000288f0 t _ZN5ImGui12InputScalarNEPKciPviPKvS4_S1_i.constprop.1
0000000000028120 t _ZN5ImGui12InputScalarNEPKciPviPKvS4_S1_i.constprop.2
                 U _ZN5ImGui12IsItemActiveEv
                 U _ZN5ImGui12IsKeyPressedE8ImGuiKeyb
                 U _ZN5ImGui12IsKeyPressedE8ImGuiKeyij
                 U _ZN5ImGui12PopItemWidthEv
                 U _ZN5ImGui12PushClipRectERK6ImVec2S2_b
                 U _ZN5ImGui12PushItemFlagEib
                 U _ZN5ImGui12PushStyleVarEiRK6ImVec2
                 U _ZN5ImGui12PushStyleVarEif
                 U _ZN5ImGui12RenderBulletEP10ImDrawList6ImVec2j
                 U _ZN5ImGui12SetHoveredIDEj
000000000000ccf0 T _ZN5ImGui12ShrinkWidthsEP20ImGuiShrinkWidthItemiff
0000000000030d90 T _ZN5ImGui12SliderFloat2EPKcPfffS1_i
0000000000030b90 T _ZN5ImGui12SliderFloat3EPKcPfffS1_i
0000000000030970 T _ZN5ImGui12SliderFloat4EPKcPfffS1_i
000000000002ff20 T _ZN5ImGui12SliderScalarEPKciPvPKvS4_S1_i
000000000001d6a0 T _ZN5ImGui12TabBarAddTabEP11ImGuiTabBariP11ImGuiWindow
000000000001cc40 T _ZN5ImGui12TabBarRemoveEP11ImGuiTabBar
                 U _ZN5ImGui12TableEndCellEP10ImGuiTable
                 U _ZN5ImGui12TestKeyOwnerE8ImGuiKeyj
0000000000006be0 T _ZN5ImGui12TextAlignedVEffPKcP13__va_list_tag
00000000000066e0 T _ZN5ImGui12TextColoredVERK6ImVec4PKcP13__va_list_tag
0000000000006780 T _ZN5ImGui12TextDisabledEPKcz
0000000000006ad0 T _ZN5ImGui12TextWrappedVEPKcP13__va_list_tag
0000000000031250 T _ZN5ImGui12VSliderFloatEPKcRK6ImVec2PfffS1_i
0000000000008a70 T _ZN5ImGui13ArrowButtonExEPKc8ImGuiDir6ImVec2i
                 U _ZN5ImGui13BeginDisabledEb
000000000001cd60 T _ZN5ImGui13BeginTabBarExEP11ImGuiTabBarRK6ImRecti
                 U _ZN5ImGui13CalcItemWidthEv
0000000000014fb0 T _ZN5ImGui13CheckboxFlagsEPKcPii
0000000000014db0 T _ZN5ImGui13CheckboxFlagsEPKcPjj
0000000000014e50 T _ZN5ImGui13CheckboxFlagsEPKcPxx
0000000000014f00 T _ZN5ImGui13CheckboxFlagsEPKcPyy
                 U _ZN5ImGui13ClearActiveIDEv
000000000000e880 T _ZN5ImGui13DataTypeClampEiPvPKvS2_
0000000000000000 W _ZN5ImGui13DragBehaviorTIdddEEbiPT_fS1_S1_PKci
0000000000000000 W _ZN5ImGui13DragBehaviorTIfffEEbiPT_fS1_S1_PKci
0000000000000000 W _ZN5ImGui13DragBehaviorTIiifEEbiPT_fS1_S1_PKci
0000000000000000 W _ZN5ImGui13DragBehaviorTIjifEEbiPT_fS1_S1_PKci
0000000000000000 W _ZN5ImGui13DragBehaviorTIxxdEEbiPT_fS1_S1_PKci
0000000000000000 W _ZN5ImGui13DragBehaviorTIyxdEEbiPT_fS1_S1_PKci
0000000000029dc0 T _ZN5ImGui13DragIntRange2EPKcPiS2_fiiS1_S1_i
                 U _ZN5ImGui13GetFrameCountEv
                 U _ZN5ImGui13GetIDWithSeedEPKcS1_j
                 U _ZN5ImGui13GetScrollMaxYEv
000000000000a6a0 T _ZN5ImGui13ImageButtonExEj12ImTextureRefRK6ImVec2S3_S3_RK6ImVec4S6_i
                 U _ZN5ImGui13IsItemHoveredEi
                 U _ZN5ImGui13IsRectVisibleERK6ImVec2S2_
                 U _ZN5ImGui13ItemHoverableERK6ImRectji
                 U _ZN5ImGui13NavInitWindowEP11ImGuiWindowb
000000000001a7b0 T _ZN5ImGui13PlotHistogramEPKcPFfPviES2_iiS1_ff6ImVec2
000000000001a730 T _ZN5ImGui13PlotHistogramEPKcPKfiiS1_ff6ImVec2i
                 U _ZN5ImGui13PopFocusScopeEv
                 U _ZN5ImGui13PopStyleColorEi
                 U _ZN5ImGui13PushItemWidthEf
                 U _ZN5ImGui13PushStyleVarXEif
000000000000c7c0 T _ZN5ImGui13SeparatorTextEPKc
00000000000304e0 T _ZN5ImGui13SliderScalarNEPKciPviPKvS4_S1_i
00000000000307d0 t _ZN5ImGui13SliderScalarNEPKciPviPKvS4_S1_i.constprop.0
00000000000309f0 t _ZN5ImGui13SliderScalarNEPKciPviPKvS4_S1_i.constprop.1
0000000000030c10 t _ZN5ImGui13SliderScalarNEPKciPviPKvS4_S1_i.constprop.2
0000000000021e00 T _ZN5ImGui13TabItemButtonEPKci
00000000000274e0 T _ZN5ImGui13TempInputTextERK6ImRectjPKcPcii
00000000000068a0 T _ZN5ImGui13TextDisabledVEPKcP13__va_list_tag
0000000000030e10 T _ZN5ImGui13VSliderScalarEPKcRK6ImVec2iPvPKvS7_S1_i
0000000000011f80 T _ZN5ImGui14BeginBoxSelectERK6ImRectP11ImGuiWindowji
                 U _ZN5ImGui14BeginTooltipExEii
0000000000007670 T _ZN5ImGui14ButtonBehaviorERK6ImRectjPbS3_i
0000000000009170 T _ZN5ImGui14CollapseButtonEjRK6ImVec2P13ImGuiDockNode
000000000000eae0 T _ZN5ImGui14DataTypeIsZeroEiPKv
000000000001b470 T _ZN5ImGui14EndMainMenuBarEv
0000000000012cd0 T _ZN5ImGui14EndMultiSelectEv
                 U _ZN5ImGui14GetFrameHeightEv
                 U _ZN5ImGui14IsMouseClickedEib
                 U _ZN5ImGui14IsMouseClickedEiij
                 U _ZN5ImGui14MarkItemEditedEj
                 U _ZN5ImGui14PopTextWrapPosEv
                 U _ZN5ImGui14PushFocusScopeEj
                 U _ZN5ImGui14PushOverrideIDEj
                 U _ZN5ImGui14PushStyleColorEiRK6ImVec4
                 U _ZN5ImGui14PushStyleColorEij
                 U _ZN5ImGui14SetItemTooltipEPKcz
                 U _ZN5ImGui14SetMouseCursorEi
000000000002e280 T _ZN5ImGui14SliderBehaviorERK6ImRectjiPvPKvS5_PKciPS0_
000000000001d9a0 T _ZN5ImGui14TabBarCloseTabEP11ImGuiTabBarP12ImGuiTabItem
000000000001cbc0 T _ZN5ImGui14TabBarFindByIDEj
0000000000021e90 T _ZN5ImGui14TabItemSpacingEPKcif
000000000000d3d0 T _ZN5ImGui15BeginComboPopupEjRK6ImRecti
000000000000e230 T _ZN5ImGui15DataTypeApplyOpEiiPvPKvS2_
000000000000e710 T _ZN5ImGui15DataTypeCompareEiPKvS1_
000000000000e0f0 T _ZN5ImGui15DataTypeGetInfoEi
0000000000000880 t _ZN5ImGui15DataTypeGetInfoEi.part.0
0000000000029ad0 T _ZN5ImGui15DragFloatRange2EPKcPfS2_fffS1_S1_i
000000000000dfd0 T _ZN5ImGui15EndComboPreviewEv
                 U _ZN5ImGui15GetMainViewportEv
0000000000008920 T _ZN5ImGui15InvisibleButtonEPKcRK6ImVec2i
                 U _ZN5ImGui15IsMouseDraggingEif
                 U _ZN5ImGui15IsMousePosValidEPK6ImVec2
                 U _ZN5ImGui15IsMouseReleasedEi
                 U _ZN5ImGui15IsMouseReleasedEij
                 U _ZN5ImGui15IsWindowChildOfEP11ImGuiWindowS1_bb
                 U _ZN5ImGui15IsWindowHoveredEi
                 U _ZN5ImGui15LogRenderedTextEPK6ImVec2PKcS4_
000000000000fd20 T _ZN5ImGui15PopPasswordFontEv
                 U _ZN5ImGui15PushTextWrapPosEf
                 U _ZN5ImGui15RenderCheckMarkEP10ImDrawList6ImVec2jf
                 U _ZN5ImGui15RenderNavCursorERK6ImRectji
000000000000c330 T _ZN5ImGui15SeparatorTextExEjPKcS1_f
0000000000011720 T _ZN5ImGui15SetNextItemOpenEbi
0000000000000000 W _ZN5ImGui15SliderBehaviorTIdddEEbRK6ImRectjiPT_S4_S4_PKciPS1_
0000000000000000 W _ZN5ImGui15SliderBehaviorTIfffEEbRK6ImRectjiPT_S4_S4_PKciPS1_
0000000000000000 W _ZN5ImGui15SliderBehaviorTIiifEEbRK6ImRectjiPT_S4_S4_PKciPS1_
0000000000000000 W _ZN5ImGui15SliderBehaviorTIjifEEbRK6ImRectjiPT_S4_S4_PKciPS1_
000000000001d8c0 T _ZN5ImGui15TabBarRemoveTabEP11ImGuiTabBarj
000000000001faf0 T _ZN5ImGui15TabItemCalcSizeEP11ImGuiWindow
000000000001fa40 T _ZN5ImGui15TabItemCalcSizeEPKcb
00000000000275e0 T _ZN5ImGui15TempInputScalarERK6ImRectjPKciPvS4_PKvS7_
000000000001ca30 T _ZN5ImGui15TextLinkOpenURLEPKcS1_
0000000000006440 T _ZN5ImGui15TextUnformattedEPKcS1_
0000000000010e30 T _ZN5ImGui15TreeNodeGetOpenEj
0000000000010e60 T _ZN5ImGui15TreeNodeSetOpenEjb
000000000001b3c0 T _ZN5ImGui16BeginMainMenuBarEv
0000000000013220 T _ZN5ImGui16BeginMultiSelectEiii
                 U _ZN5ImGui16BeginPopupMenuExEjPKci
0000000000016f70 T _ZN5ImGui16CollapsingHeaderEPKcPbi
0000000000016f10 T _ZN5ImGui16CollapsingHeaderEPKci
                 U _ZN5ImGui16FindWindowByNameEPKc
                 U _ZN5ImGui16GetClipboardTextEv
000000000000fbb0 T _ZN5ImGui16PushPasswordFontEv
                 U _ZN5ImGui16SetClipboardTextEPKc
                 U _ZN5ImGui16SetNextItemWidthEf
                 U _ZN5ImGui16SetNextWindowPosERK6ImVec2iS2_
000000000001f970 T _ZN5ImGui16SetTabItemClosedEPKc
000000000000c810 T _ZN5ImGui16SplitterBehaviorERK6ImRectj9ImGuiAxisPfS4_ffffj
000000000001d650 T _ZN5ImGui16TabBarGetTabNameEP11ImGuiTabBarP12ImGuiTabItem
00000000000008b0 t _ZN5ImGui16TabBarGetTabNameEP11ImGuiTabBarP12ImGuiTabItem.part.0
000000000001d9e0 T _ZN5ImGui16TabBarQueueFocusEP11ImGuiTabBarP12ImGuiTabItem
000000000001d9f0 T _ZN5ImGui16TabBarQueueFocusEP11ImGuiTabBarPKc
0000000000015c30 T _ZN5ImGui16TreeNodeBehaviorEjiPKcS1_
000000000000de60 T _ZN5ImGui17BeginComboPreviewEv
                 U _ZN5ImGui17CloseCurrentPopupEv
                 U _ZN5ImGui17ClosePopupToLevelEib
                 U _ZN5ImGui17EndDragDropSourceEv
                 U _ZN5ImGui17EndDragDropTargetEv
                 U _ZN5ImGui17GetStyleColorVec4Ei
                 U _ZN5ImGui17GetTextLineHeightEv
0000000000027920 T _ZN5ImGui17InputTextWithHintEPKcS1_PcmiPFiP26ImGuiInputTextCallbackDataEPv
                 U _ZN5ImGui17RenderFrameBorderE6ImVec2S0_f
                 U _ZN5ImGui17RenderTextClippedERK6ImVec2S2_PKcS4_PS1_S2_PK6ImRect
                 U _ZN5ImGui17RenderTextWrappedE6ImVec2PKcS2_f
000000000000f3b0 T _ZN5ImGui17SetNextItemRefValEiPv
                 U _ZN5ImGui17SetNextWindowSizeERK6ImVec2i
000000000001d4b0 T _ZN5ImGui17TabBarFindTabByIDEP11ImGuiTabBarj
000000000001fc00 T _ZN5ImGui17TabItemBackgroundEP10ImDrawListRK6ImRectij
                 U _ZN5ImGui18GetCursorScreenPosEv
00000000000278f0 T _ZN5ImGui18InputTextMultilineEPKcPcmRK6ImVec2iPFiP26ImGuiInputTextCallbackDataEPv
                 U _ZN5ImGui18RenderTextEllipsisEP10ImDrawListRK6ImVec2S4_fPKcS6_PS3_
                 U _ZN5ImGui18SetCurrentViewportEP11ImGuiWindowP14ImGuiViewportP
                 U _ZN5ImGui18SetCursorScreenPosERK6ImVec2
                 U _ZN5ImGui18SetDragDropPayloadEPKcPKvmi
000000000001da40 T _ZN5ImGui18TabBarQueueReorderEP11ImGuiTabBarP12ImGuiTabItemi
00000000000008e0 t _ZN5ImGui18TabBarQueueReorderEP11ImGuiTabBarP12ImGuiTabItemi.part.0
00000000000114e0 T _ZN5ImGui18TreePushOverrideIDEj
                 U _ZN5ImGui19BeginDragDropSourceEi
                 U _ZN5ImGui19BeginDragDropTargetEv
                 U _ZN5ImGui19CalcWrapWidthForPosERK6ImVec2f
                 U _ZN5ImGui19FindRenderedTextEndEPKcS1_
                 U _ZN5ImGui19IsMouseHoveringRectERK6ImVec2S2_b
                 U _ZN5ImGui19RenderArrowDockMenuEP10ImDrawList6ImVec2fj
0000000000010280 T _ZN5ImGui19SetColorEditOptionsEi
                 U _ZN5ImGui19SetItemDefaultFocusEv
000000000001d610 T _ZN5ImGui19TabBarGetCurrentTabEP11ImGuiTabBar
000000000001b130 T _ZN5ImGui20BeginViewportSideBarEPKcP13ImGuiViewport8ImGuiDirfi
                 U _ZN5ImGui20ColorConvertHSVtoRGBEfffRfS0_S0_
                 U _ZN5ImGui20ColorConvertRGBtoHSVEfffRfS0_S0_
000000000000e120 T _ZN5ImGui20DataTypeFormatStringEPciiPKvPKc
00000000000093a0 T _ZN5ImGui20GetWindowScrollbarIDEP11ImGuiWindow9ImGuiAxis
                 U _ZN5ImGui20MarkIniSettingsDirtyEv
0000000000012bc0 T _ZN5ImGui20MultiSelectAddSetAllEP24ImGuiMultiSelectTempDatab
                 U _ZN5ImGui20NavMoveRequestCancelEv
                 U _ZN5ImGui20OpenPopupOnItemClickEPKci
                 U _ZN5ImGui20PopColumnsBackgroundEv
                 U _ZN5ImGui20PushMultiItemsWidthsEif
0000000000000c70 t _ZN5ImGui20ScaleRatioFromValueTIdddEEfiT_S1_S1_bff.isra.0
0000000000001290 t _ZN5ImGui20ScaleRatioFromValueTIfffEEfiT_S1_S1_bff.isra.0
00000000000023a0 t _ZN5ImGui20ScaleRatioFromValueTIiifEEfiT_S1_S1_bff.isra.0
0000000000002220 t _ZN5ImGui20ScaleRatioFromValueTIjifEEfiT_S1_S1_bff.isra.0
0000000000001c90 t _ZN5ImGui20ScaleRatioFromValueTIxxdEEfiT_S1_S1_bff.isra.0
0000000000001a50 t _ZN5ImGui20ScaleRatioFromValueTIyxdEEfiT_S1_S1_bff.isra.0
0000000000000000 W _ZN5ImGui20ScaleValueFromRatioTIdddEET_ifS1_S1_bff
0000000000000000 W _ZN5ImGui20ScaleValueFromRatioTIfffEET_ifS1_S1_bff
0000000000000000 W _ZN5ImGui20ScaleValueFromRatioTIiifEET_ifS1_S1_bff
0000000000002110 t _ZN5ImGui20ScaleValueFromRatioTIjifEET_ifS1_S1_bff.isra.0
0000000000000000 W _ZN5ImGui20ScaleValueFromRatioTIxxdEET_ifS1_S1_bff
0000000000001820 t _ZN5ImGui20ScaleValueFromRatioTIyxdEET_ifS1_S1_bff.isra.0
0000000000011760 T _ZN5ImGui20SetNextItemStorageIDEj
000000000001d500 T _ZN5ImGui20TabBarFindTabByOrderEP11ImGuiTabBari
000000000001dc70 T _ZN5ImGui20TabBarProcessReorderEP11ImGuiTabBar
                 U _ZN5ImGui21AcceptDragDropPayloadEPKci
                 U _ZN5ImGui21BeginPopupContextItemEPKci
0000000000018180 T _ZN5ImGui21ColorEditOptionsPopupEPKfi
000000000000f030 T _ZN5ImGui21DataTypeApplyFromTextEPKciPvS1_S2_
                 U _ZN5ImGui21GetContentRegionAvailEv
0000000000013d20 T _ZN5ImGui21MultiSelectItemFooterEjPbS0_
0000000000012990 T _ZN5ImGui21MultiSelectItemHeaderEjPbPi
                 U _ZN5ImGui21NavMoveRequestForwardE8ImGuiDirS0_ii
                 U _ZN5ImGui21PushColumnsBackgroundEv
                 U _ZN5ImGui21RenderArrowPointingAtEP10ImDrawList6ImVec2S2_8ImGuiDirj
                 U _ZN5ImGui21SetNextWindowViewportEj
                 U _ZN5ImGui21TablePopColumnChannelEv
0000000000011d00 T _ZN5ImGui21TypingSelectFindMatchEP24ImGuiTypingSelectRequestiPFPKcPviES4_i
                 U _ZN5ImGui22DebugLocateItemOnHoverEj
                 U _ZN5ImGui22GetFontTexUvWhitePixelEv
0000000000011790 T _ZN5ImGui22GetTypingSelectRequestEi
00000000000093c0 T _ZN5ImGui22GetWindowScrollbarRectEP11ImGuiWindow9ImGuiAxis
0000000000013bb0 T _ZN5ImGui22MultiSelectAddSetRangeEP24ImGuiMultiSelectTempDatabixx
                 U _ZN5ImGui22RenderRectFilledRangeHEP10ImDrawListRK6ImRectjfff
0000000000000000 W _ZN5ImGui22RoundScalarWithFormatTIdEET_PKciS1_
0000000000000000 W _ZN5ImGui22RoundScalarWithFormatTIfEET_PKciS1_
0000000000000000 W _ZN5ImGui22RoundScalarWithFormatTIiEET_PKciS1_
0000000000000000 W _ZN5ImGui22RoundScalarWithFormatTIjEET_PKciS1_
0000000000000000 W _ZN5ImGui22RoundScalarWithFormatTIxEET_PKciS1_
0000000000000000 W _ZN5ImGui22RoundScalarWithFormatTIyEET_PKciS1_
                 U _ZN5ImGui22StartMouseMovingWindowEP11ImGuiWindow
                 U _ZN5ImGui22TablePushColumnChannelEi
0000000000010e90 T _ZN5ImGui22TreeNodeUpdateNextOpenEji
000000000000bd20 T _ZN5ImGui23AlignTextToFramePaddingEv
                 U _ZN5ImGui23ColorConvertFloat4ToU32ERK6ImVec4
000000000002d860 T _ZN5ImGui23ColorPickerOptionsPopupEPKfi
0000000000010000 T _ZN5ImGui23DebugNodeInputTextStateEP19ImGuiInputTextState
000000000000fe00 T _ZN5ImGui23InputTextDeactivateHookEj
                 U _ZN5ImGui24GetNavTweakPressedAmountE9ImGuiAxis
                 U _ZN5ImGui24IsMouseDragPastThresholdEif
                 U _ZN5ImGui24IsWindowContentHoverableEP11ImGuiWindowi
                 U _ZN5ImGui24LogSetNextTextDecorationEPKcS1_
                 U _ZN5ImGui25CalcClipRectVisibleItemsYERK6ImRectRK6ImVec2fPiS6_
                 U _ZN5ImGui25CalcTypematicRepeatAmountEffff
                 U _ZN5ImGui25CalcWindowNextAutoFitSizeEP11ImGuiWindow
00000000000189a0 T _ZN5ImGui25DebugNodeMultiSelectStateEP21ImGuiMultiSelectState
                 U _ZN5ImGui25GetPopupAllowedExtentRectEP11ImGuiWindow
0000000000011700 T _ZN5ImGui25GetTreeNodeToLabelSpacingEv
                 U _ZN5ImGui25NavMoveRequestTryWrappingEP11ImGuiWindowi
                 U _ZN5ImGui25TablePopBackgroundChannelEv
00000000000112a0 T _ZN5ImGui25TreeNodeDrawLineToTreePopEPK22ImGuiTreeNodeStackData
0000000000011f20 T _ZN5ImGui26DebugNodeTypingSelectStateEP22ImGuiTypingSelectState
                 U _ZN5ImGui26FocusTopMostWindowUnderOneEP11ImGuiWindowS1_P13ImGuiViewporti
                 U _ZN5ImGui26IsItemDeactivatedAfterEditEv
0000000000020180 T _ZN5ImGui26TabItemLabelAndCloseButtonEP10ImDrawListRK6ImRecti6ImVec2PKcjjbPbS8_
                 U _ZN5ImGui26TablePushBackgroundChannelEv
                 U _ZN5ImGui27FindBestWindowPosForPopupExERK6ImVec2S2_P8ImGuiDirRK6ImRectS7_24ImGuiPopupPositionPolicy
                 U _ZN5ImGui27NavClearPreferredPosForAxisE9ImGuiAxis
0000000000010f90 T _ZN5ImGui27TreeNodeDrawLineToChildNodeERK6ImVec2
                 U _ZN5ImGui28DockContextQueueUndockWindowEP12ImGuiContextP11ImGuiWindow
                 U _ZN5ImGui28GetTextLineHeightWithSpacingEv
                 U _ZN5ImGui28NavMoveRequestButNoResultYetEv
                 U _ZN5ImGui28SetNavCursorVisibleAfterMoveEv
0000000000012930 T _ZN5ImGui28SetNextItemSelectionUserDataEx
                 U _ZN5ImGui28SetNextWindowSizeConstraintsERK6ImVec2S2_PFvP21ImGuiSizeCallbackDataEPv
                 U _ZN5ImGui28StartMouseMovingWindowOrNodeEP11ImGuiWindowP13ImGuiDockNodeb
000000000001da90 T _ZN5ImGui30TabBarQueueReorderFromMousePosEP11ImGuiTabBarP12ImGuiTabItem6ImVec2
                 U _ZN5ImGui31SetActiveIdUsingAllKeyboardKeysEv
0000000000011e30 T _ZN5ImGui32TypingSelectFindBestLeadingMatchEP24ImGuiTypingSelectRequestiPFPKcPviES4_
0000000000011be0 T _ZN5ImGui35TypingSelectFindNextSingleCharMatchEP24ImGuiTypingSelectRequestiPFPKcPviES4_i
                 U _ZN5ImGui36RenderColorRectWithAlphaCheckerboardEP10ImDrawList6ImVec2S2_jfS2_fi
                 U _ZN5ImGui37NavMoveRequestResolveWithPastTreeNodeEP16ImGuiNavItemDataPK22ImGuiTreeNodeStackData
                 U _ZN5ImGui38ShadeVertsLinearColorGradientKeepAlphaEP10ImDrawListii6ImVec2S2_jj
                 U _ZN5ImGui3EndEv
000000000001d540 T _ZN5ImGui48TabBarFindMostRecentlySelectedTabForActiveWindowEP11ImGuiTabBar
0000000000006450 T _ZN5ImGui4TextEPKcz
                 U _ZN5ImGui5BeginEPKcPbi
0000000000017cd0 T _ZN5ImGui5ComboEPKcPiPFS1_PviES3_ii
0000000000000032 t _ZN5ImGui5ComboEPKcPiPFS1_PviES3_ii.cold
0000000000017f30 T _ZN5ImGui5ComboEPKcPiPKS1_ii
0000000000000059 t _ZN5ImGui5ComboEPKcPiPKS1_ii.cold
00000000000186c0 T _ZN5ImGui5ComboEPKcPiS1_i
0000000000000080 t _ZN5ImGui5ComboEPKcPiS1_i.cold
000000000000bbc0 T _ZN5ImGui5DummyERK6ImVec2
                 U _ZN5ImGui5GetIDEPKc
000000000000a440 T _ZN5ImGui5ImageE12ImTextureRefRK6ImVec2S3_S3_
                 U _ZN5ImGui5PopIDEv
0000000000006550 T _ZN5ImGui5TextVEPKcP13__va_list_tag
000000000001a7f0 T _ZN5ImGui5ValueEPKcb
000000000001a860 T _ZN5ImGui5ValueEPKcfS1_
000000000001a820 T _ZN5ImGui5ValueEPKci
000000000001a840 T _ZN5ImGui5ValueEPKcj
000000000000b590 T _ZN5ImGui6BulletEv
0000000000008440 T _ZN5ImGui6ButtonEPKcRK6ImVec2
                 U _ZN5ImGui6IndentEf
00000000000199f0 T _ZN5ImGui6PlotExE13ImGuiPlotTypePKcPFfPviES3_iiS2_ffRK6ImVec2
                 U _ZN5ImGui6PushIDEPKc
                 U _ZN5ImGui6PushIDEPKv
                 U _ZN5ImGui6PushIDEi
0000000000005ec0 T _ZN5ImGui6TextExEPKcS1_i
0000000000029d80 T _ZN5ImGui7DragIntEPKcPifiiS1_i
000000000001c380 T _ZN5ImGui7EndMenuEv
                 U _ZN5ImGui7ItemAddERK6ImRectjPS1_i
00000000000197d0 T _ZN5ImGui7ListBoxEPKcPiPFS1_PviES3_ii
00000000000000ce t _ZN5ImGui7ListBoxEPKcPiPFS1_PviES3_ii.cold
00000000000195b0 T _ZN5ImGui7ListBoxEPKcPiPKS1_ii
00000000000000a7 t _ZN5ImGui7ListBoxEPKcPiPKS1_ii.cold
                 U _ZN5ImGui7LogTextEPKcz
                 U _ZN5ImGui7MemFreeEPv
000000000000bc50 T _ZN5ImGui7NewLineEv
000000000000bb50 T _ZN5ImGui7SpacingEv
0000000000011520 T _ZN5ImGui7TreePopEv
00000000000081c0 T _ZN5ImGui8ButtonExEPKcRK6ImVec2i
00000000000146f0 T _ZN5ImGui8CheckboxEPKcPb
                 U _ZN5ImGui8DebugLogEPKcz
000000000002e240 T _ZN5ImGui8DragInt2EPKcPifiiS1_i
000000000002e030 T _ZN5ImGui8DragInt3EPKcPifiiS1_i
000000000002de00 T _ZN5ImGui8DragInt4EPKcPifiiS1_i
                 U _ZN5ImGui8EndChildEv
000000000000de40 T _ZN5ImGui8EndComboEv
                 U _ZN5ImGui8EndGroupEv
                 U _ZN5ImGui8EndPopupEv
                 U _ZN5ImGui8ErrorLogEPKc
0000000000028050 T _ZN5ImGui8InputIntEPKcPiiii
                 U _ZN5ImGui8ItemSizeERK6ImVec2f
                 U _ZN5ImGui8MemAllocEm
000000000001cb10 T _ZN5ImGui8MenuItemEPKcS1_Pbb
000000000001caf0 T _ZN5ImGui8MenuItemEPKcS1_bb
                 U _ZN5ImGui8SameLineEff
                 U _ZN5ImGui8SetNavIDEj13ImGuiNavLayerjRK6ImRect
                 U _ZN5ImGui8ShortcutEii
                 U _ZN5ImGui8ShortcutEiij
000000000000b6f0 T _ZN5ImGui8TextLinkEPKc
0000000000016d20 T _ZN5ImGui8TreeNodeEPKc
00000000000175f0 T _ZN5ImGui8TreeNodeEPKcS1_z
0000000000017320 T _ZN5ImGui8TreeNodeEPKvPKcz
0000000000011460 T _ZN5ImGui8TreePushEPKc
00000000000114a0 T _ZN5ImGui8TreePushEPKv
                 U _ZN5ImGui8UnindentEf
000000000001c370 T _ZN5ImGui9BeginMenuEPKcb
0000000000029a90 T _ZN5ImGui9DragFloatEPKcPffffS1_i
000000000001f680 T _ZN5ImGui9EndTabBarEv
00000000000284f0 T _ZN5ImGui9InputInt2EPKcPii
0000000000028cb0 T _ZN5ImGui9InputInt3EPKcPii
00000000000288d0 T _ZN5ImGui9InputInt4EPKcPii
0000000000027880 T _ZN5ImGui9InputTextEPKcPcmiPFiP26ImGuiInputTextCallbackDataEPv
0000000000000a80 t _ZN5ImGui9InputTextEPKcPcmiPFiP26ImGuiInputTextCallbackDataEPv.part.0
                 U _ZN5ImGui9IsKeyDownE8ImGuiKey
0000000000007160 T _ZN5ImGui9LabelTextEPKcS1_z
                 U _ZN5ImGui9OpenPopupEPKci
000000000001a6f0 T _ZN5ImGui9PlotLinesEPKcPFfPviES2_iiS1_ff6ImVec2
000000000001a680 T _ZN5ImGui9PlotLinesEPKcPKfiiS1_ff6ImVec2i
0000000000009e90 T _ZN5ImGui9ScrollbarE9ImGuiAxis
000000000000c0b0 T _ZN5ImGui9SeparatorEv
0000000000030790 T _ZN5ImGui9SliderIntEPKcPiiiS1_i
0000000000020630 T _ZN5ImGui9TabItemExEP11ImGuiTabBarPKcPbiP11ImGuiWindow
0000000000017430 T _ZN5ImGui9TreeNodeVEPKcS1_P13__va_list_tag
0000000000017170 T _ZN5ImGui9TreeNodeVEPKvPKcP13__va_list_tag
000000000001de10 t _ZN5ImGuiL12TabBarLayoutEP11ImGuiTabBar
0000000000000520 t _ZN5ImGuiL15TabBarCalcTabIDEP11ImGuiTabBarPKcP11ImGuiWindow.part.0
0000000000004610 t _ZN5ImStbL16stb_textedit_keyEP19ImGuiInputTextStatePNS_17STB_TexteditStateEi
0000000000003e40 t _ZN5ImStbL17stb_textedit_dragEP19ImGuiInputTextStatePNS_17STB_TexteditStateEff
0000000000003d50 t _ZN5ImStbL18stb_textedit_clickEP19ImGuiInputTextStatePNS_17STB_TexteditStateEff
0000000000002a60 t _ZN5ImStbL19stb_text_createundoEPNS_12StbUndoStateEiii
0000000000003600 t _ZN5ImStbL19stb_textedit_deleteEP19ImGuiInputTextStatePNS_17STB_TexteditStateEii
00000000000004c0 t _ZN5ImStbL20STB_TEXTEDIT_GETCHAREPK19ImGuiInputTextStatei.part.0
00000000000039f0 t _ZN5ImStbL21stb_text_locate_coordEP19ImGuiInputTextStateffPi
0000000000000490 t _ZN5ImStbL24STB_TEXTEDIT_DELETECHARSEP19ImGuiInputTextStateii.part.0
0000000000003400 t _ZN5ImStbL24STB_TEXTEDIT_INSERTCHARSEP19ImGuiInputTextStateiPKci
00000000000003e0 t _ZN5ImStbL25stb_textedit_discard_undoEPNS_12StbUndoStateE.part.0
0000000000004130 t _ZN5ImStbL25stb_textedit_find_charposEPNS_12StbFindStateEP19ImGuiInputTextStateii
0000000000000680 t _ZN5ImStbL27is_word_boundary_from_rightEP19ImGuiInputTextStatei.part.0
00000000000028f0 t _ZN5ImStbL27stb_text_create_undo_recordEPNS_12StbUndoStateEi
0000000000003860 t _ZN5ImStbL29STB_TEXTEDIT_MOVELINEEND_IMPLEP19ImGuiInputTextStatePNS_17STB_TexteditStateEi.isra.0
0000000000003f20 t _ZN5ImStbL29stb_textedit_delete_selectionEP19ImGuiInputTextStatePNS_17STB_TexteditStateE
0000000000003110 t _ZN5ImStbL30STB_TEXTEDIT_MOVEWORDRIGHT_MACEP19ImGuiInputTextStatei
00000000000036d0 t _ZN5ImStbL31STB_TEXTEDIT_MOVELINESTART_IMPLEP19ImGuiInputTextStatePNS_17STB_TexteditStateEi.part.0
00000000000032f0 t _ZN5ImStbL31STB_TEXTEDIT_MOVEWORDRIGHT_IMPLEP19ImGuiInputTextStatei
                 U _ZN6ImFont10RenderTextEP10ImDrawListfRK6ImVec2jRK6ImVec4PKcS9_fi
0000000000000910 t _ZN8ImVectorIcE7reserveEi.part.0
0000000000000000 W _ZN8ImVectorIcE9push_backERKc
                 U _ZNK10ImDrawList27_CalcCircleAutoSegmentCountEf
                 U _ZNK12ImGuiStorage6GetIntEji
000000000000f770 T _ZNK19ImGuiInputTextState12GetCursorPosEv
000000000000f730 T _ZNK19ImGuiInputTextState12HasSelectionEv
000000000000f790 T _ZNK19ImGuiInputTextState15GetSelectionEndEv
000000000000f780 T _ZNK19ImGuiInputTextState17GetSelectionStartEv
000000000000f7a0 T _ZNK19ImGuiInputTextState19GetPreferredOffsetXEv
0000000000018bf0 T _ZNK26ImGuiSelectionBasicStorage8ContainsEj
0000000000002810 t _ZNK8ImVectorI12ImGuiTabItemE14index_from_ptrEPKS0_.isra.0
0000000000000220 r _ZZL32GetMinimumStepAtDecimalPrecisioniE9min_steps
0000000000000090 t _ZZN26ImGuiSelectionBasicStorageC4EvENUlPS_iE_4_FUNES0_i
0000000000000060 d _ZZN5ImGui10ColorEdit4EPKcPfiE13fmt_table_int
0000000000000000 d _ZZN5ImGui10ColorEdit4EPKcPfiE15fmt_table_float
00000000000000c0 d _ZZN5ImGui10ColorEdit4EPKcPfiE3ids
00000000000001a0 r _ZZN5ImStbL18ImCharIsSeparatorWEjE14separator_list
                 U __assert_fail
                 U __gxx_personality_v0
                 U __isoc23_sscanf
                 U __memcpy_chk
                 U __memset_chk
                 U __stack_chk_fail
                 U atan2f
                 U fmodf
                 U log
                 U logf
                 U memchr
                 U memcmp
                 U memcpy
                 U memmove
                 U pow
                 U powf
                 U qsort
                 U sincosf
                 U strchr
                 U strcmp
                 U strlen
                 U strncmp
                 U strtod

imgui_tables.cpp.o:
0000000000000000 r .LC1
0000000000000050 r .LC10
000000000000023e r .LC100
0000000000000000 r .LC101
0000000000000d60 r .LC102
0000000000000da0 r .LC103
0000000000000dc0 r .LC104
0000000000000df8 r .LC105
0000000000000e50 r .LC107
0000000000000eb8 r .LC108
0000000000000f10 r .LC109
0000000000000098 r .LC11
0000000000000f60 r .LC110
0000000000000f88 r .LC111
0000000000000fd0 r .LC112
0000000000001000 r .LC113
0000000000001030 r .LC114
0000000000001058 r .LC115
0000000000001090 r .LC116
00000000000010b8 r .LC117
00000000000010e8 r .LC118
0000000000001118 r .LC119
00000000000000c0 r .LC12
0000000000001140 r .LC120
0000000000000256 r .LC121
0000000000001178 r .LC122
0000000000000264 r .LC123
0000000000000010 r .LC124
000000000000027f r .LC125
0000000000000014 r .LC126
0000000000000018 r .LC127
0000000000000282 r .LC128
0000000000000287 r .LC129
0000000000000063 r .LC13
0000000000000296 r .LC130
000000000000001c r .LC131
00000000000011a0 r .LC132
00000000000011d0 r .LC133
0000000000000002 r .LC134
00000000000011f0 r .LC135
0000000000001228 r .LC136
0000000000000010 r .LC137
0000000000000020 r .LC138
0000000000000000 r .LC139
0000000000000100 r .LC14
00000000000002a0 r .LC140
0000000000000010 r .LC142
0000000000001270 r .LC143
00000000000012d0 r .LC144
0000000000000024 r .LC145
0000000000000028 r .LC146
0000000000000010 r .LC147
0000000000000020 r .LC148
000000000000002c r .LC149
0000000000000140 r .LC15
0000000000000030 r .LC150
00000000000002ac r .LC152
00000000000002bc r .LC153
0000000000001300 r .LC155
00000000000002da r .LC156
0000000000001348 r .LC157
0000000000001398 r .LC158
00000000000013c8 r .LC159
000000000000007d r .LC16
0000000000001430 r .LC160
00000000000002f5 r .LC161
0000000000001478 r .LC162
00000000000014d0 r .LC163
00000000000014f0 r .LC164
0000000000001540 r .LC165
0000000000001570 r .LC166
000000000000030c r .LC167
00000000000015a0 r .LC168
0000000000000315 r .LC169
0000000000000178 r .LC17
00000000000015d0 r .LC170
000000000000032f r .LC171
0000000000001638 r .LC172
00000000000016a8 r .LC173
00000000000016d8 r .LC174
0000000000000346 r .LC175
0000000000001718 r .LC176
0000000000001758 r .LC177
00000000000017b0 r .LC178
0000000000000362 r .LC179
0000000000000090 r .LC18
0000000000000034 r .LC182
00000000000017e0 r .LC183
0000000000001840 r .LC184
000000000000036c r .LC185
0000000000000008 r .LC186
0000000000000380 r .LC187
0000000000001870 r .LC188
0000000000001900 r .LC189
00000000000000a1 r .LC19
0000000000000010 r .LC190
0000000000000004 r .LC191
000000000000038c r .LC194
0000000000001938 r .LC195
0000000000001970 r .LC196
0000000000000392 r .LC198
0000000000000399 r .LC199
000000000000000c r .LC2
00000000000000ae r .LC20
00000000000003a0 r .LC200
00000000000003a4 r .LC201
00000000000003a8 r .LC202
00000000000003ac r .LC203
00000000000003c9 r .LC204
00000000000003db r .LC205
0000000000001990 r .LC206
00000000000003f5 r .LC207
00000000000003fe r .LC208
0000000000000408 r .LC209
00000000000000b0 r .LC21
0000000000000414 r .LC210
0000000000000418 r .LC211
0000000000000424 r .LC212
000000000000042c r .LC213
0000000000000436 r .LC214
0000000000000442 r .LC215
0000000000000450 r .LC216
0000000000000457 r .LC217
000000000000045e r .LC219
00000000000000bc r .LC22
0000000000000468 r .LC220
00000000000019d8 r .LC221
0000000000001a00 r .LC222
0000000000000474 r .LC223
0000000000000484 r .LC224
0000000000000493 r .LC225
0000000000001a50 r .LC226
0000000000001a90 r .LC227
0000000000001ad8 r .LC228
0000000000001b20 r .LC229
00000000000000c9 r .LC23
0000000000001b50 r .LC230
0000000000001b90 r .LC231
0000000000000038 r .LC232
0000000000001bc8 r .LC233
0000000000001d40 r .LC234
0000000000001d68 r .LC235
0000000000001d90 r .LC236
0000000000001dd0 r .LC237
00000000000004a2 r .LC238
0000000000001df8 r .LC239
00000000000000d3 r .LC24
0000000000001e20 r .LC240
00000000000004b4 r .LC242
000000000000003c r .LC243
0000000000001e58 r .LC244
00000000000004bc r .LC245
0000000000001e98 r .LC246
00000000000004cf r .LC247
00000000000004e1 r .LC248
00000000000004fa r .LC249
00000000000000e0 r .LC25
0000000000000510 r .LC250
0000000000001ec0 r .LC251
0000000000000529 r .LC252
0000000000001ef8 r .LC253
0000000000001f30 r .LC254
00000000000000ec r .LC26
00000000000000f7 r .LC27
00000000000001b0 r .LC28
00000000000001f8 r .LC29
0000000000000018 r .LC3
0000000000000101 r .LC30
000000000000011b r .LC31
0000000000000240 r .LC32
0000000000000298 r .LC33
00000000000002d8 r .LC34
0000000000000125 r .LC35
0000000000000008 r .LC36
0000000000000328 r .LC37
0000000000000358 r .LC38
0000000000000388 r .LC39
0000000000000028 r .LC4
0000000000000000 r .LC40
00000000000003d0 r .LC41
0000000000000140 r .LC42
0000000000000408 r .LC43
0000000000000448 r .LC44
0000000000000488 r .LC45
0000000000000004 r .LC46
0000000000000008 r .LC47
00000000000004b8 r .LC48
00000000000004f0 r .LC49
0000000000000033 r .LC5
0000000000000548 r .LC50
0000000000000598 r .LC51
00000000000005f0 r .LC52
0000000000000660 r .LC53
0000000000000690 r .LC54
00000000000006f0 r .LC55
0000000000000770 r .LC56
0000000000000159 r .LC57
0000000000000177 r .LC58
000000000000018f r .LC59
000000000000003f r .LC6
00000000000007a0 r .LC60
00000000000007e8 r .LC61
0000000000000828 r .LC62
0000000000000858 r .LC63
0000000000000880 r .LC64
00000000000008c0 r .LC65
00000000000008e8 r .LC66
0000000000000190 r .LC67
000000000000019f r .LC68
0000000000000928 r .LC69
000000000000004c r .LC7
00000000000001a1 r .LC70
0000000000000000 r .LC71
000000000000000c r .LC72
00000000000001b5 r .LC73
0000000000000000 r .LC74
0000000000000950 r .LC75
0000000000000980 r .LC76
00000000000009a8 r .LC77
0000000000000a10 r .LC78
00000000000001b7 r .LC79
0000000000000057 r .LC8
00000000000001d4 r .LC80
00000000000001e7 r .LC81
0000000000000a38 r .LC82
0000000000000a58 r .LC83
0000000000000000 r .LC84
0000000000000aa8 r .LC85
0000000000000ae8 r .LC86
0000000000000204 r .LC87
0000000000000b38 r .LC88
0000000000000b68 r .LC89
0000000000000000 r .LC9
0000000000000b98 r .LC90
0000000000000221 r .LC91
0000000000000bd0 r .LC92
0000000000000c00 r .LC93
0000000000000c38 r .LC94
0000000000000c60 r .LC95
0000000000000c90 r .LC96
0000000000000cc8 r .LC97
0000000000000cf8 r .LC98
0000000000000d30 r .LC99
0000000000000000 V DW.ref.__gxx_personality_v0
                 U GImGui
                 U _Unwind_Resume
                 U _Z14ImFormatStringPcmPKcz
                 U _Z14ImStrSkipBlankPKc
                 U _Z16ImTextCountLinesPKcS0_
                 U _Z9ImHashStrPKcmj
0000000000000b00 t _ZL21TableSetupColumnFlagsP10ImGuiTableP16ImGuiTableColumni
0000000000000350 t _ZL29TableSettingsHandler_ApplyAllP12ImGuiContextP20ImGuiSettingsHandler
0000000000000410 t _ZL29TableSettingsHandler_ClearAllP12ImGuiContextP20ImGuiSettingsHandler
0000000000000000 t _ZL29TableSettingsHandler_ReadLineP12ImGuiContextP20ImGuiSettingsHandlerPvPKc
000000000000c680 t _ZL29TableSettingsHandler_ReadOpenP12ImGuiContextP20ImGuiSettingsHandlerPKc
00000000000004e0 t _ZL29TableSettingsHandler_WriteAllP12ImGuiContextP20ImGuiSettingsHandlerP15ImGuiTextBuffer
00000000000002f0 t _ZL32TableGetColumnAvailSortDirectionP16ImGuiTableColumni.part.0
                 U _ZN10ImDrawList11PopClipRectEv
                 U _ZN10ImDrawList12PushClipRectERK6ImVec2S2_b
                 U _ZN10ImDrawList13AddQuadFilledERK6ImVec2S2_S2_S2_j
                 U _ZN10ImDrawList13AddRectFilledERK6ImVec2S2_jfi
                 U _ZN10ImDrawList7AddLineERK6ImVec2S2_jf
                 U _ZN10ImDrawList7AddRectERK6ImVec2S2_jfif
                 U _ZN11ImGuiWindow5GetIDEPKcS1_
                 U _ZN12ImGuiStorage6SetIntEji
                 U _ZN12ImGuiStorage9GetIntRefEji
                 U _ZN15ImGuiTextBuffer6appendEPKcS1_
                 U _ZN15ImGuiTextBuffer7appendfEPKcz
                 U _ZN18ImDrawListSplitter15ClearFreeMemoryEv
                 U _ZN18ImDrawListSplitter17SetCurrentChannelEP10ImDrawListi
                 U _ZN18ImDrawListSplitter5MergeEP10ImDrawList
                 U _ZN18ImDrawListSplitter5SplitEP10ImDrawListi
000000000000e690 T _ZN5ImGui10BeginTableEPKciiRK6ImVec2f
                 U _ZN5ImGui10BulletTextEPKcz
0000000000010bf0 T _ZN5ImGui10EndColumnsEv
0000000000010970 T _ZN5ImGui10NextColumnEv
                 U _ZN5ImGui10RenderTextE6ImVec2PKcS2_b
                 U _ZN5ImGui10SelectableEPKcbiRK6ImVec2
                 U _ZN5ImGui11GetColorU32Eif
                 U _ZN5ImGui11GetMousePosEv
                 U _ZN5ImGui11IsClippedExERK6ImRectj
                 U _ZN5ImGui11KeepAliveIDEj
                 U _ZN5ImGui11OpenPopupExEji
                 U _ZN5ImGui11PopClipRectEv
                 U _ZN5ImGui11PopItemFlagEv
                 U _ZN5ImGui11RenderArrowEP10ImDrawList6ImVec2j8ImGuiDirf
                 U _ZN5ImGui11SmallButtonEPKc
0000000000002800 T _ZN5ImGui11TableEndRowEP10ImGuiTable
00000000000064f0 T _ZN5ImGui11TableHeaderEPKc
000000000000e7a0 T _ZN5ImGui11TableRemoveEP10ImGuiTable
                 U _ZN5ImGui12BeginChildExEPKcjRK6ImVec2ii
0000000000010270 T _ZN5ImGui12BeginColumnsEPKcii
                 U _ZN5ImGui12BeginPopupExEji
000000000000ce70 T _ZN5ImGui12BeginTableExEPKcjiiRK6ImVec2f
000000000000000e t _ZN5ImGui12BeginTableExEPKcjiiRK6ImVec2f.cold
                 U _ZN5ImGui12CalcItemSizeE6ImVec2ff
                 U _ZN5ImGui12CalcTextSizeEPKcS1_bf
0000000000010200 T _ZN5ImGui12GetColumnsIDEPKci
                 U _ZN5ImGui12PopItemWidthEv
                 U _ZN5ImGui12PushClipRectERK6ImVec2S2_b
                 U _ZN5ImGui12PushItemFlagEib
00000000000025c0 T _ZN5ImGui12TableEndCellEP10ImGuiTable
0000000000009200 T _ZN5ImGui12TableNextRowEif
                 U _ZN5ImGui13ClearActiveIDEv
                 U _ZN5ImGui13GetIDWithSeedEPKcS1_j
                 U _ZN5ImGui13GetIDWithSeedEij
                 U _ZN5ImGui13IsItemHoveredEi
                 U _ZN5ImGui13IsItemVisibleEv
                 U _ZN5ImGui13ItemHoverableERK6ImRectji
                 U _ZN5ImGui13PopStyleColorEi
                 U _ZN5ImGui13PushItemWidthEf
0000000000002210 T _ZN5ImGui13TableBeginRowEP10ImGuiTable
0000000000000e40 T _ZN5ImGui13TableFindByIDEj
                 U _ZN5ImGui14ButtonBehaviorERK6ImRectjPbS3_i
000000000000eee0 T _ZN5ImGui14DebugNodeTableEP10ImGuiTable
000000000000f890 T _ZN5ImGui14GetColumnIndexEv
000000000000f9f0 T _ZN5ImGui14GetColumnWidthEi
                 U _ZN5ImGui14GetItemRectMaxEv
                 U _ZN5ImGui14GetItemRectMinEv
                 U _ZN5ImGui14PushOverrideIDEj
                 U _ZN5ImGui14PushStyleColorEiRK6ImVec4
                 U _ZN5ImGui14PushStyleColorEij
000000000000fd20 T _ZN5ImGui14SetColumnWidthEif
                 U _ZN5ImGui14SetItemTooltipEPKcz
                 U _ZN5ImGui14SetMouseCursorEi
0000000000002400 T _ZN5ImGui14TableBeginCellEP10ImGuiTablei
000000000000f930 T _ZN5ImGui15GetColumnOffsetEi
000000000000f8c0 T _ZN5ImGui15GetColumnsCountEv
                 U _ZN5ImGui15IsMouseDraggingEif
                 U _ZN5ImGui15IsMouseReleasedEi
                 U _ZN5ImGui15LogRenderedTextEPK6ImVec2PKcS4_
                 U _ZN5ImGui15RenderNavCursorERK6ImRectji
000000000000fab0 T _ZN5ImGui15SetColumnOffsetEif
000000000000af60 T _ZN5ImGui15TableHeadersRowEv
0000000000009500 T _ZN5ImGui15TableNextColumnEv
0000000000002010 T _ZN5ImGui15TableSetBgColorEiji
                 U _ZN5ImGui16DebugBreakButtonEPKcS1_
                 U _ZN5ImGui16IsAnyItemHoveredEv
00000000000051c0 T _ZN5ImGui16TableDrawBordersEP10ImGuiTable
00000000000021e0 T _ZN5ImGui16TableGetRowIndexEv
0000000000001420 T _ZN5ImGui16TableSetupColumnEPKcifj
                 U _ZN5ImGui17GetStyleColorVec4Ei
                 U _ZN5ImGui17SetScrollFromPosXEP11ImGuiWindowff
000000000000b2e0 T _ZN5ImGui17TableGetSortSpecsEv
000000000000c870 T _ZN5ImGui17TableLoadSettingsEP10ImGuiTable
0000000000000000 t _ZN5ImGui17TableLoadSettingsEP10ImGuiTable.cold
000000000000c850 T _ZN5ImGui17TableSaveSettingsEP10ImGuiTable
000000000000b4d0 t _ZN5ImGui17TableSaveSettingsEP10ImGuiTable.part.0.constprop.0
0000000000007340 T _ZN5ImGui17TableUpdateLayoutEP10ImGuiTable
                 U _ZN5ImGui18AddSettingsHandlerEPK20ImGuiSettingsHandler
                 U _ZN5ImGui18GetCursorScreenPosEv
000000000000fe00 T _ZN5ImGui18PushColumnClipRectEi
                 U _ZN5ImGui18RenderTextEllipsisEP10ImDrawListRK6ImVec2S4_fPKcS6_PS3_
0000000000001e20 T _ZN5ImGui18TableGetCellBgRectEPK10ImGuiTablei
0000000000001be0 T _ZN5ImGui18TableGetColumnNameEPK10ImGuiTablei
0000000000001b00 T _ZN5ImGui18TableGetColumnNameEi
0000000000001f90 T _ZN5ImGui18TableGetHoveredRowEv
000000000000c820 T _ZN5ImGui18TableResetSettingsEP10ImGuiTable
0000000000000fb0 T _ZN5ImGui18TableUpdateBordersEP10ImGuiTable
000000000000ff70 T _ZN5ImGui19FindOrCreateColumnsEP11ImGuiWindowj
0000000000000074 t _ZN5ImGui19FindOrCreateColumnsEP11ImGuiWindowj.cold
                 U _ZN5ImGui19FindRenderedTextEndEPKcS1_
                 U _ZN5ImGui19SetNextWindowScrollERK6ImVec2
0000000000001ae0 T _ZN5ImGui19TableGetColumnCountEv
0000000000001d90 T _ZN5ImGui19TableGetColumnFlagsEi
00000000000023d0 T _ZN5ImGui19TableGetColumnIndexEv
0000000000002710 T _ZN5ImGui19TableSetColumnIndexEi
0000000000003660 T _ZN5ImGui19TableSetColumnWidthEif
000000000000b340 T _ZN5ImGui19TableSettingsCreateEji
0000000000005ee0 T _ZN5ImGui19TableSortSpecsBuildEP10ImGuiTable
                 U _ZN5ImGui20IsMouseDoubleClickedEi
                 U _ZN5ImGui20MarkIniSettingsDirtyEv
000000000000ff00 T _ZN5ImGui20PopColumnsBackgroundEv
0000000000000ec0 T _ZN5ImGui20TableBeginInitMemoryEP10ImGuiTablei
0000000000006440 T _ZN5ImGui20TableOpenContextMenuEi
                 U _ZN5ImGui21GetContentRegionAvailEv
                 U _ZN5ImGui21GetForegroundDrawListEP13ImGuiViewport
000000000000fe80 T _ZN5ImGui21PushColumnsBackgroundEv
000000000000ab30 T _ZN5ImGui21TableAngledHeadersRowEv
000000000000c7a0 T _ZN5ImGui21TableGetBoundSettingsEP10ImGuiTable
0000000000000320 t _ZN5ImGui21TableGetBoundSettingsEP10ImGuiTable.part.0
0000000000001f60 T _ZN5ImGui21TableGetHoveredColumnEv
0000000000003eb0 T _ZN5ImGui21TablePopColumnChannelEv
0000000000001ca0 T _ZN5ImGui21TableSetColumnEnabledEib
000000000000c5d0 T _ZN5ImGui21TableSettingsFindByIDEj
000000000000ed90 T _ZN5ImGui22DebugNodeTableSettingsEP18ImGuiTableSettings
                 U _ZN5ImGui22ShadeVertsTransformPosEP10ImDrawListiiRK6ImVec2ffS4_
000000000000eb00 T _ZN5ImGui22TableGcCompactSettingsEv
000000000000005f t _ZN5ImGui22TableGcCompactSettingsEv.cold
0000000000001ec0 T _ZN5ImGui22TableGetColumnResizeIDEP10ImGuiTableii
00000000000041c0 T _ZN5ImGui22TableMergeDrawChannelsEP10ImGuiTable
0000000000003e00 T _ZN5ImGui22TablePushColumnChannelEi
0000000000003f60 T _ZN5ImGui22TableSetupDrawChannelsEP10ImGuiTable
0000000000001820 T _ZN5ImGui22TableSetupScrollFreezeEii
0000000000005ba0 T _ZN5ImGui22TableSortSpecsSanitizeEP10ImGuiTable
000000000000f910 T _ZN5ImGui23GetColumnNormFromOffsetEPK15ImGuiOldColumnsf
000000000000f8f0 T _ZN5ImGui23GetColumnOffsetFromNormEPK15ImGuiOldColumnsf
00000000000095b0 T _ZN5ImGui23TableAngledHeadersRowExEjffPK20ImGuiTableHeaderDatai
00000000000038f0 T _ZN5ImGui23TableBeginApplyRequestsEP10ImGuiTable
0000000000003240 T _ZN5ImGui23TableCalcMaxColumnWidthEPK10ImGuiTablei
0000000000003360 T _ZN5ImGui23TableGetColumnWidthAutoEP10ImGuiTableP16ImGuiTableColumn
0000000000006130 T _ZN5ImGui23TableGetHeaderRowHeightEv
                 U _ZN5ImGui24SetNextWindowContentSizeERK6ImVec2
0000000000003d60 T _ZN5ImGui25TablePopBackgroundChannelEv
0000000000006f00 T _ZN5ImGui26TableBeginContextMenuPopupEP10ImGuiTable
0000000000003ce0 T _ZN5ImGui26TablePushBackgroundChannelEv
0000000000003440 T _ZN5ImGui26TableSetColumnWidthAutoAllEP10ImGuiTable
0000000000006f60 T _ZN5ImGui27TableDrawDefaultContextMenuEP10ImGuiTablei
0000000000005810 T _ZN5ImGui27TableFixColumnSortDirectionEP10ImGuiTableP16ImGuiTableColumn
0000000000005950 T _ZN5ImGui27TableSetColumnSortDirectionEi18ImGuiSortDirectionb
00000000000033f0 T _ZN5ImGui29TableSetColumnWidthAutoSingleEP10ImGuiTablei
000000000000e930 T _ZN5ImGui30TableGcCompactTransientBuffersEP10ImGuiTable
000000000000eae0 T _ZN5ImGui30TableGcCompactTransientBuffersEP18ImGuiTableTempData
0000000000005860 T _ZN5ImGui31TableGetColumnNextSortDirectionEP16ImGuiTableColumn
000000000000e6e0 T _ZN5ImGui31TableSettingsAddSettingsHandlerEv
000000000000f850 T _ZN5ImGui33SetWindowClipRectBeforeSetChannelEP11ImGuiWindowRK6ImRect
00000000000062b0 T _ZN5ImGui33TableGetHeaderAngledMaxLabelWidthEv
00000000000034c0 T _ZN5ImGui33TableUpdateColumnsWeightFromWidthEP10ImGuiTable
                 U _ZN5ImGui39NavUpdateCurrentWindowIsScrollPushableXEv
                 U _ZN5ImGui4TextEPKcz
                 U _ZN5ImGui51ErrorCheckUsingSetCursorPosToExtendParentBoundariesEv
                 U _ZN5ImGui5GetIDEPKc
                 U _ZN5ImGui5PopIDEv
                 U _ZN5ImGui6BulletEv
                 U _ZN5ImGui6PushIDEi
0000000000011260 T _ZN5ImGui7ColumnsEiPKcb
                 U _ZN5ImGui7ItemAddERK6ImRectjPS1_i
                 U _ZN5ImGui7MemFreeEPv
                 U _ZN5ImGui7TreePopEv
                 U _ZN5ImGui8EndChildEv
                 U _ZN5ImGui8EndPopupEv
000000000000b780 T _ZN5ImGui8EndTableEv
                 U _ZN5ImGui8ErrorLogEPKc
                 U _ZN5ImGui8ItemSizeERK6ImVec2f
                 U _ZN5ImGui8MemAllocEm
                 U _ZN5ImGui8MenuItemEPKcS1_bb
                 U _ZN5ImGui8SameLineEff
                 U _ZN5ImGui8TreeNodeEPKvPKcz
                 U _ZN5ImGui9SeparatorEv
                 U _ZNK12ImGuiStorage6GetIntEji
                 U __assert_fail
                 U __gxx_personality_v0
                 U __isoc23_sscanf
                 U __stack_chk_fail
                 U memcmp
                 U memcpy
                 U memset
                 U sincosf
                 U strchr
                 U strlen

imgui_impl_opengl3.cpp.o:
0000000000000000 r .LC0
0000000000000000 r .LC1
000000000000000a r .LC10
0000000000000016 r .LC11
0000000000000025 r .LC12
0000000000000031 r .LC13
000000000000003a r .LC14
0000000000000045 r .LC15
0000000000000050 r .LC16
0000000000000062 r .LC17
0000000000000058 r .LC18
0000000000000077 r .LC19
0000000000000006 r .LC2
0000000000000084 r .LC20
0000000000000080 r .LC21
00000000000000b0 r .LC22
0000000000000100 r .LC23
000000000000008b r .LC24
000000000000009e r .LC25
0000000000000158 r .LC26
00000000000000aa r .LC27
00000000000000ac r .LC28
00000000000001c8 r .LC29
0000000000000200 r .LC30
0000000000000238 r .LC31
0000000000000260 r .LC32
0000000000000288 r .LC33
00000000000000c0 r .LC34
00000000000002d8 r .LC35
0000000000000308 r .LC36
0000000000000330 r .LC37
0000000000000400 r .LC39
00000000000004d0 r .LC40
00000000000005c8 r .LC41
0000000000000680 r .LC42
00000000000007a0 r .LC43
0000000000000870 r .LC44
00000000000009a8 r .LC45
0000000000000a48 r .LC46
00000000000000d1 r .LC47
00000000000000dd r .LC48
00000000000000eb r .LC49
0000000000000000 r .LC5
00000000000000fb r .LC50
0000000000000b20 r .LC51
000000000000010a r .LC52
0000000000000112 r .LC53
000000000000011a r .LC54
0000000000000123 r .LC55
0000000000000126 r .LC56
0000000000000b70 r .LC58
0000000000000b98 r .LC59
0000000000000000 r .LC6
0000000000000bf8 r .LC60
0000000000000c30 r .LC62
0000000000000c58 r .LC63
0000000000000000 r .LC7
0000000000000000 V DW.ref.__gxx_personality_v0
0000000000001a40 T ImGui_ImplOpenGL3_CreateDeviceObjects
0000000000000090 t ImGui_ImplOpenGL3_CreateDeviceObjects.cold
0000000000001ee0 T ImGui_ImplOpenGL3_DestroyDeviceObjects
00000000000000e9 t ImGui_ImplOpenGL3_DestroyDeviceObjects.cold
0000000000000b90 T ImGui_ImplOpenGL3_Init
0000000000001e60 T ImGui_ImplOpenGL3_NewFrame
0000000000001230 T ImGui_ImplOpenGL3_RenderDrawData
0000000000002000 T ImGui_ImplOpenGL3_Shutdown
0000000000000f10 T ImGui_ImplOpenGL3_UpdateTexture
                 U _Unwind_Resume
0000000000000a90 T _Z28ImGui_ImplOpenGL3_InitLoaderv
0000000000000000 d _ZL10proc_names
0000000000000120 t _ZL11CheckShaderjPKc
0000000000000000 t _ZL11CheckShaderjPKc.cold
0000000000000200 b _ZL19gl_get_proc_address
0000000000001a00 t _ZL30ImGui_ImplOpenGL3_RenderWindowP13ImGuiViewportPv
0000000000000250 t _ZL34ImGui_ImplOpenGL3_SetupRenderStateP10ImDrawDataiij
000000000000002a t _ZL34ImGui_ImplOpenGL3_SetupRenderStateP10ImDrawDataiij.cold
0000000000000218 b _ZL5libgl
0000000000000208 b _ZL6libegl
0000000000000210 b _ZL6libglx
00000000000001f8 b _ZL7version
                 U _ZN15ImGuiPlatformIO21ClearRendererHandlersEv
                 U _ZN5ImGui13GetPlatformIOEv
                 U _ZN5ImGui17GetCurrentContextEv
                 U _ZN5ImGui22DestroyPlatformWindowsEv
                 U _ZN5ImGui30DebugCheckVersionAndDataLayoutEPKcmmmmmm
                 U _ZN5ImGui5GetIOEv
                 U _ZN5ImGui7MemFreeEPv
                 U _ZN5ImGui8MemAllocEm
                 U __assert_fail
                 U __fprintf_chk
                 U __gxx_personality_v0
                 U __isoc23_sscanf
                 U __memcpy_chk
                 U __stack_chk_fail
                 U __stpcpy_chk
                 U atexit
0000000000000000 t close_libgl
                 U dlclose
                 U dlopen
                 U dlsym
                 U fwrite
0000000000000a30 T imgl3wGetProcAddress
0000000000000870 T imgl3wInit
0000000000000930 T imgl3wInit2
0000000000000a00 T imgl3wIsSupported
0000000000000000 B imgl3wProcs
0000000000000990 T imgl3wShutdown
0000000000000570 t open_libgl
0000000000000070 t parse_version
                 U stderr
                 U strcmp
                 U strlen
                 U strncmp

imgui_impl_sdl3.cpp.o:
0000000000000000 r .LC0
0000000000000002 r .LC1
0000000000000060 r .LC10
00000000000000b0 r .LC11
0000000000000108 r .LC12
0000000000000018 r .LC13
0000000000000020 r .LC15
0000000000000026 r .LC16
000000000000002b r .LC17
0000000000000030 r .LC18
000000000000004d r .LC19
0000000000000000 r .LC2
0000000000000064 r .LC20
0000000000000130 r .LC21
0000000000000168 r .LC22
0000000000000000 r .LC23
00000000000001c8 r .LC25
0000000000000082 r .LC26
00000000000001f8 r .LC27
0000000000000218 r .LC28
0000000000000268 r .LC29
0000000000000000 r .LC3
00000000000002c0 r .LC30
0000000000000300 r .LC31
0000000000000004 r .LC32
0000000000000340 r .LC33
0000000000000008 r .LC34
000000000000000c r .LC35
0000000000000010 r .LC36
0000000000000014 r .LC37
0000000000000018 r .LC38
000000000000001c r .LC39
0000000000000004 r .LC6
0000000000000011 r .LC8
0000000000000020 r .LC9
0000000000000000 V DW.ref.__gxx_personality_v0
0000000000001a10 T ImGui_ImplSDL3_InitForD3D
0000000000001a40 T ImGui_ImplSDL3_InitForMetal
00000000000019b0 T ImGui_ImplSDL3_InitForOpenGL
0000000000001a70 T ImGui_ImplSDL3_InitForOther
0000000000001a60 T ImGui_ImplSDL3_InitForSDLGPU
0000000000001a50 T ImGui_ImplSDL3_InitForSDLRenderer
00000000000019c0 T ImGui_ImplSDL3_InitForVulkan
0000000000000013 t ImGui_ImplSDL3_InitForVulkan.cold
0000000000001d00 T ImGui_ImplSDL3_NewFrame
000000000000001d t ImGui_ImplSDL3_NewFrame.cold
0000000000001450 T ImGui_ImplSDL3_ProcessEvent
0000000000001b60 T ImGui_ImplSDL3_SetGamepadMode
0000000000001a80 T ImGui_ImplSDL3_Shutdown
                 U SDL_CaptureMouse
                 U SDL_CloseGamepad
                 U SDL_CreateSystemCursor
                 U SDL_CreateWindow
                 U SDL_DestroyCursor
                 U SDL_DestroyWindow
                 U SDL_GL_CreateContext
                 U SDL_GL_DestroyContext
                 U SDL_GL_GetCurrentContext
                 U SDL_GL_MakeCurrent
                 U SDL_GL_SetAttribute
                 U SDL_GL_SetSwapInterval
                 U SDL_GL_SwapWindow
                 U SDL_GetClipboardText
                 U SDL_GetCurrentVideoDriver
                 U SDL_GetDisplayBounds
                 U SDL_GetDisplayContentScale
                 U SDL_GetDisplayUsableBounds
                 U SDL_GetDisplays
                 U SDL_GetGamepadAxis
                 U SDL_GetGamepadButton
                 U SDL_GetGamepads
                 U SDL_GetGlobalMouseState
                 U SDL_GetKeyboardFocus
                 U SDL_GetMouseFocus
                 U SDL_GetPerformanceCounter
                 U SDL_GetPerformanceFrequency
                 U SDL_GetVersion
                 U SDL_GetWindowFlags
                 U SDL_GetWindowFromID
                 U SDL_GetWindowID
                 U SDL_GetWindowPosition
                 U SDL_GetWindowRelativeMouseMode
                 U SDL_GetWindowSize
                 U SDL_GetWindowSizeInPixels
                 U SDL_HideCursor
                 U SDL_OpenGamepad
                 U SDL_OpenURL
                 U SDL_RaiseWindow
                 U SDL_SetClipboardText
                 U SDL_SetCursor
                 U SDL_SetHint
                 U SDL_SetTextInputArea
                 U SDL_SetWindowOpacity
                 U SDL_SetWindowParent
                 U SDL_SetWindowPosition
                 U SDL_SetWindowSize
                 U SDL_SetWindowTitle
                 U SDL_ShowCursor
                 U SDL_ShowWindow
                 U SDL_StartTextInput
                 U SDL_StopTextInput
                 U SDL_TextInputActive
                 U SDL_Vulkan_CreateSurface
                 U SDL_WarpMouseGlobal
                 U SDL_WarpMouseInWindow
                 U SDL_free
                 U _Unwind_Resume
0000000000001030 T _Z33ImGui_ImplSDL3_KeyEventToImGuiKeyj12SDL_Scancode
0000000000000000 b _ZGVZ23ImGui_ImplSDL3_NewFrameE9frequency
0000000000000ae0 t _ZL19ImGui_ImplSDL3_InitP10SDL_WindowP12SDL_RendererPv
00000000000002a0 t _ZL25ImGui_ImplSDL3_ShowWindowP13ImGuiViewport
0000000000000100 t _ZL26ImGui_ImplSDL3_SwapBuffersP13ImGuiViewportPv
0000000000000690 t _ZL27ImGui_ImplSDL3_CreateWindowP13ImGuiViewport
0000000000000000 t _ZL27ImGui_ImplSDL3_GetWindowPosP13ImGuiViewport
00000000000000d0 t _ZL27ImGui_ImplSDL3_RenderWindowP13ImGuiViewportPv
0000000000000230 t _ZL27ImGui_ImplSDL3_SetWindowPosP13ImGuiViewport6ImVec2
0000000000000260 t _ZL27ImGui_ImplSDL3_UpdateWindowP13ImGuiViewport
0000000000000450 t _ZL28ImGui_ImplSDL3_CloseGamepadsv
000000000000000a t _ZL28ImGui_ImplSDL3_CloseGamepadsv.cold
00000000000002e0 t _ZL28ImGui_ImplSDL3_DestroyWindowP13ImGuiViewport
0000000000000190 t _ZL28ImGui_ImplSDL3_GetWindowSizeP13ImGuiViewport
0000000000000200 t _ZL28ImGui_ImplSDL3_SetWindowSizeP13ImGuiViewport6ImVec2
0000000000000160 t _ZL29ImGui_ImplSDL3_GetWindowFocusP13ImGuiViewport
00000000000000c0 t _ZL29ImGui_ImplSDL3_SetWindowAlphaP13ImGuiViewportf
0000000000000180 t _ZL29ImGui_ImplSDL3_SetWindowFocusP13ImGuiViewport
0000000000000130 t _ZL29ImGui_ImplSDL3_SetWindowTitleP13ImGuiViewportPKc
0000000000000840 t _ZL29ImGui_ImplSDL3_UpdateMonitorsv
00000000000000a0 t _ZL30ImGui_ImplSDL3_CreateVkSurfaceP13ImGuiViewportyPKvPy
0000000000000410 t _ZL31ImGui_ImplSDL3_GetClipboardTextP12ImGuiContext
0000000000000000 t _ZL31ImGui_ImplSDL3_GetClipboardTextP12ImGuiContext.cold
0000000000000090 t _ZL31ImGui_ImplSDL3_SetClipboardTextP12ImGuiContextPKc
0000000000000140 t _ZL33ImGui_ImplSDL3_GetWindowMinimizedP13ImGuiViewport
0000000000000520 t _ZL33ImGui_ImplSDL3_PlatformSetImeDataP12ImGuiContextP13ImGuiViewportP20ImGuiPlatformImeData
0000000000000340 t _ZL40ImGui_ImplSDL3_GetWindowFramebufferScaleP13ImGuiViewport
                 U _ZN15ImGuiPlatformIO21ClearPlatformHandlersEv
                 U _ZN5ImGui13GetFrameCountEv
                 U _ZN5ImGui13GetPlatformIOEv
                 U _ZN5ImGui14GetMouseCursorEv
                 U _ZN5ImGui15GetMainViewportEv
                 U _ZN5ImGui15IsMouseDraggingEif
                 U _ZN5ImGui17GetCurrentContextEv
                 U _ZN5ImGui18GetDragDropPayloadEv
                 U _ZN5ImGui22DestroyPlatformWindowsEv
                 U _ZN5ImGui28FindViewportByPlatformHandleEPv
                 U _ZN5ImGui30DebugCheckVersionAndDataLayoutEPKcmmmmmm
                 U _ZN5ImGui5GetIOEv
                 U _ZN5ImGui7MemFreeEPv
                 U _ZN5ImGui8MemAllocEm
                 U _ZN7ImGuiIO11AddKeyEventE8ImGuiKeyb
                 U _ZN7ImGuiIO13AddFocusEventEb
                 U _ZN7ImGuiIO16AddMousePosEventEff
                 U _ZN7ImGuiIO17AddKeyAnalogEventE8ImGuiKeybf
                 U _ZN7ImGuiIO18AddMouseWheelEventEff
                 U _ZN7ImGuiIO19AddMouseButtonEventEib
                 U _ZN7ImGuiIO19AddMouseSourceEventE16ImGuiMouseSource
                 U _ZN7ImGuiIO21AddMouseViewportEventEj
                 U _ZN7ImGuiIO21SetKeyEventNativeDataE8ImGuiKeyiii
                 U _ZN7ImGuiIO22AddInputCharactersUTF8EPKc
0000000000000008 b _ZZ23ImGui_ImplSDL3_NewFrameE9frequency
0000000000000070 t _ZZL19ImGui_ImplSDL3_InitP10SDL_WindowP12SDL_RendererPvENUlP12ImGuiContextPKcE_4_FUNES5_S7_
                 U __assert_fail
                 U __cxa_guard_abort
                 U __cxa_guard_acquire
                 U __cxa_guard_release
                 U __gxx_personality_v0
                 U __snprintf_chk
                 U __stack_chk_fail
                 U memcpy
                 U strncmp
